ccopy_reg
_reconstructor
p1
(ctensorflow.contrib.learn.python.learn.preprocessing.text
VocabularyProcessor
p2
c__builtin__
object
p3
NtRp4
(dp5
S'vocabulary_'
p6
g1
(ctensorflow.contrib.learn.python.learn.preprocessing.categorical_vocabulary
CategoricalVocabulary
p7
g3
NtRp8
(dp9
S'_freeze'
p10
I01
sS'_unknown_token'
p11
S'<UNK>'
p12
sS'_support_reverse'
p13
I01
sS'_freq'
p14
ccollections
defaultdict
p15
(c__builtin__
int
p16
tRp17
S'Savage'
p18
I1
sS'Stuart'
p19
I1
sS'Varnish'
p20
I1
sS'earmarks'
p21
I1
sS'Does'
p22
I1
sS'controversial'
p23
I1
sS'aides'
p24
I1
sS'captain'
p25
I1
sS'hate'
p26
I2
sS"Apple's"
p27
I1
sS'Liverpool'
p28
I6
sS'Livingstone'
p29
I1
sS"China's"
p30
I1
sS'Watch'
p31
I5
sS"fog'"
p32
I1
sS'under'
p33
I2
sS'Shoot'
p34
I1
sS'League'
p35
I2
sS'GP'
p36
I1
sS'Became'
p37
I1
sS'GB'
p38
I1
sS'much-loved'
p39
I1
sS'Suitors'
p40
I1
sS'school'
p41
I1
sS'basics'
p42
I1
sS'Campaign'
p43
I2
sS'Premier'
p44
I1
sS'protest'
p45
I3
sS'math'
p46
I1
sS'Go'
p47
I1
sS'Paul'
p48
I2
sS'phones'
p49
I1
sS'warns'
p50
I1
sS'Christie'
p51
I1
sS"Warriors'"
p52
I1
sS'A'
I2
sS'Pathogen'
p53
I1
sS'even'
p54
I1
sS'Kaufman'
p55
I1
sS'thunder'
p56
I1
sS'Nafta'
p57
I1
sS'Game'
p58
I2
sS'Hamilton'
p59
I3
sS'new'
p60
I4
sS'ever'
p61
I2
sS'Needing'
p62
I1
sS'G6'
p63
I1
sS'join'
p64
I1
sS'never'
p65
I1
sS'Budget'
p66
I3
sS'hundreds'
p67
I1
sS'protection'
p68
I1
sS'Sidelined'
p69
I1
sS'100'
p70
I1
sS'Precise'
p71
I1
sS'ODI'
p72
I1
sS'kids'
p73
I2
sS'employees'
p74
I1
sS'controversy'
p75
I1
sS'Pushed'
p76
I1
sS'Qaeda'
p77
I1
sS'military'
p78
I1
sS'changes'
p79
I1
sS"'impressed'"
p80
I1
sS'Orleans'
p81
I1
sS'resurrected'
p82
I1
sS'campaign'
p83
I1
sS'Chaffetz'
p84
I1
sS'27-18'
p85
I2
sS'two-state'
p86
I1
sS'Three'
p87
I1
sS'patience'
p88
I1
sS'Health'
p89
I2
sS'Meet'
p90
I1
sS'Wales'
p91
I2
sS'Jen'
p92
I1
sS'plot'
p93
I1
sS"crash'"
p94
I1
sS'Usada'
p95
I1
sS'would'
p96
I1
sS'hospital'
p97
I1
sS'Removes'
p98
I1
sS'leaks'
p99
I3
sS'call'
p100
I1
sS'strike'
p101
I1
sS'Johanna'
p102
I1
sS'Brighton'
p103
I1
sS'-Cas9'
p104
I1
sS'brings'
p105
I2
sS'phone'
p106
I2
sS'Hacking'
p107
I1
sS'hold'
p108
I1
sS'must'
p109
I1
sS'me'
p110
I1
sS'1993'
p111
I1
sS'Financial'
p112
I1
sS'theories'
p113
I1
sS'my'
p114
I1
sS'addictive'
p115
I1
sS'Lie'
p116
I1
sS'Le'
p117
I2
sS'La'
p118
I6
sS'Lil'
p119
I1
sS'cited'
p120
I1
sS'LG'
p121
I2
sS'Benoit'
p122
I1
sS'Welsh'
p123
I2
sS'travel'
p124
I3
sS"'hold"
p125
I1
sS'Killing'
p126
I1
sS'how'
p127
I1
sS"He'll"
p128
I1
sS'Billion'
p129
I2
sS'mess'
p130
I1
sS'quits'
p131
I1
sS'after'
p132
I16
sS'Will'
p133
I2
sS'president'
p134
I1
sS'law'
p135
I1
sS'ex-wife'
p136
I1
sS'All'
p137
I1
sS'fewer'
p138
I1
sS'wins'
p139
I8
sS'Raith'
p140
I1
sS'Beyond'
p141
I1
sS'over'
p142
I4
sS'Kante'
p143
I1
sS'Pixel'
p144
I1
sS'bombing'
p145
I1
sS'His'
p146
I1
sS'highlights'
p147
I2
sS"'Nobody"
p148
I1
sS'Here'
p149
I2
sS'better'
p150
I1
sS'Judge'
p151
I1
sS'Him'
p152
I1
sS'Generals'
p153
I1
sS'Mobile'
p154
I1
sS'safe'
p155
I1
sS'Club'
p156
I1
sS'Omar'
p157
I2
sS'they'
p158
I1
sS'Argues'
p159
I1
sS'filling'
p160
I1
sS'each'
p161
I1
sS'Rovers'
p162
I2
sS'Dow'
p163
I1
sS'Hate'
p164
I1
sS'Gabbiadini'
p165
I2
sS'Transport'
p166
I1
sS'Millions'
p167
I1
sS'lifted'
p168
I1
sS'series'
p169
I1
sS'aide'
p170
I1
sS'Anyone'
p171
I1
sS'Won'
p172
I1
sS'stealing'
p173
I1
sS'Musk'
p174
I2
sS'whining'
p175
I1
sS"Misbegotten'"
p176
I1
sS'ABook'
p177
I1
sS'Civilians'
p178
I1
sS'Super'
p179
I1
sS'Must'
p180
I1
sS'resume'
p181
I1
sS'Work'
p182
I1
sS'given'
p183
I1
sS'free'
p184
I2
sS'admits'
p185
I1
sS'struggle'
p186
I1
sS'W'
I1
sS'Tariffs'
p187
I1
sS'wanted'
p188
I1
sS'Soft'
p189
I1
sS'Nixon'
p190
I1
sS'Clinton'
p191
I1
sS'starts'
p192
I2
sS"go'"
p193
I1
sS'Chao'
p194
I1
sS'Driveway'
p195
I1
sS'1970s'
p196
I1
sS'Facts'
p197
I1
sS'Chair'
p198
I1
sS'daunting'
p199
I1
sS'Working'
p200
I1
sS'coding'
p201
I1
sS'Lunardi'
p202
I1
sS'Congress'
p203
I3
sS'top'
p204
I1
sS'Inflation'
p205
I1
sS"Off'"
p206
I1
sS'Press'
p207
I1
sS'murder'
p208
I1
sS'BBC'
p209
I7
sS"Puzder's"
p210
I3
sS'peril'
p211
I1
sS'roles'
p212
I1
sS'hike'
p213
I1
sS'tourists'
p214
I2
sS'Elected'
p215
I1
sS'Galaxy'
p216
I2
sS'sees'
p217
I1
sS'2-0'
p218
I2
sS'Mnuchin'
p219
I1
sS'tells'
p220
I1
sS'genuine'
p221
I1
sS"'Day"
p222
I1
sS'-'
I46
sS'Rate'
p223
I2
sS'Stoke'
p224
I1
sS'Bank'
p225
I4
sS'Jones'
p226
I2
sS'Reports'
p227
I1
sS'letter'
p228
I1
sS'Vision'
p229
I1
sS"It'll"
p230
I1
sS'Promises'
p231
I2
sS'don'
p232
I1
sS'treats'
p233
I1
sS'Lewis'
p234
I2
sS'Vauxhall'
p235
I1
sS'competitors'
p236
I1
sS'points'
p237
I2
sS'tech'
p238
I1
sS'Election'
p239
I1
sS'Filmmaking'
p240
I1
sS'voting'
p241
I1
sS'Its'
p242
I5
sS'saying'
p243
I1
sS'Ozobot'
p244
I1
sS'bomb'
p245
I1
sS'Union'
p246
I2
sS'Tapper'
p247
I1
sS'probe'
p248
I3
sS'ending'
p249
I1
sS'Huawei'
p250
I1
sS'colors'
p251
I1
sS'radio'
p252
I1
sS'Marks'
p253
I1
sS'Stance'
p254
I1
sS'Reaching'
p255
I1
sS'Big'
p256
I2
sS'Bid'
p257
I1
sS'Republicans'
p258
I3
sS'AWS'
p259
I1
sS'Amazon'
p260
I1
sS'Free'
p261
I2
sS'LIVE'
p262
I2
sS'glitz'
p263
I1
sS'do'
p264
I1
sS'Turns'
p265
I1
sS'watch'
p266
I2
sS'Days'
p267
I1
sS'hearings'
p268
I2
sS'despite'
p269
I1
sS'report'
p270
I1
sS'X'
I6
sS'Fingleton'
p271
I1
sS'Soviet'
p272
I1
sS"Durant's"
p273
I1
sS'Looms'
p274
I2
sS'Over'
p275
I2
sS'ban'
p276
I1
sS'Perez'
p277
I4
sS"Beast'"
p278
I1
sS'secretary'
p279
I2
sS"'SportsCenter'"
p280
I1
sS'testing'
p281
I3
sS'Pen'
p282
I2
sS'Short'
p283
I1
sS'result'
p284
I1
sS'Formula'
p285
I1
sS'John'
p286
I3
sS'Boost'
p287
I1
sS'best'
p288
I3
sS'said'
p289
I1
sS'draws'
p290
I2
sS'away'
p291
I1
sS'score'
p292
I1
sS'discovers'
p293
I1
sS'Peugeot'
p294
I1
sS'Roundup'
p295
I2
sS'Ranieri'
p296
I4
sS'we'
p297
I1
sS'Central'
p298
I1
sS'vows'
p299
I1
sS'confusion'
p300
I1
sS'Fake'
p301
I1
sS'boss'
p302
I2
sS'Populism'
p303
I1
sS'Remain'
p304
I1
sS'news'
p305
I2
sS'uncertainty'
p306
I1
sS'against'
p307
I5
sS'Laura'
p308
I2
sS'Corbyn'
p309
I4
sS"leaders'"
p310
I1
sS'Navy'
p311
I2
sS'com'
p312
I1
sS'Closer'
p313
I1
sS'Spotify'
p314
I1
sS"Farah's"
p315
I1
sS'Ireland'
p316
I1
sS'spoke'
p317
I1
sS'trust'
p318
I1
sS'Gives'
p319
I1
sS'conference'
p320
I2
sS'basis'
p321
I1
sS'union'
p322
I1
sS'Southern'
p323
I1
sS'three'
p324
I2
sS'been'
p325
I2
sS'Bracketology'
p326
I1
sS'Chance'
p327
I1
sS"'complicated'"
p328
I1
sS'life'
p329
I1
sS'CN'
p330
I1
sS'Utd'
p331
I1
sS'attacked'
p332
I1
sS'Poland'
p333
I1
sS"administration'"
p334
I1
sS'Philadelphia'
p335
I1
sS'child'
p336
I1
sS'Cain'
p337
I3
sS'Voice'
p338
I1
sS'Secretary'
p339
I2
sS'Heinz'
p340
I1
sS'Rocket'
p341
I1
sS'launches'
p342
I2
sS'Dollar'
p343
I1
sS'Billions'
p344
I1
sS'aim'
p345
I1
sS'abrupt'
p346
I1
sS'leaves'
p347
I1
sS'Tuesday'
p348
I1
sS'launched'
p349
I1
sS'mistake'
p350
I2
sS'is'
p351
I14
sS'dumped'
p352
I1
sS'it'
p353
I3
sS'Bush'
p354
I1
sS'experts'
p355
I1
sS'in'
p356
I50
sS'Falling'
p357
I1
sS'Warriors'
p358
I1
sS'Tell'
p359
I1
sS'grown'
p360
I1
sS'patent'
p361
I1
sS'things'
p362
I1
sS'make'
p363
I1
sS'Ramps'
p364
I1
sS'President'
p365
I3
sS'several'
p366
I1
sS'raid'
p367
I1
sS'outspends'
p368
I1
sS'tops'
p369
I1
sS'Truck'
p370
I1
sS'Home'
p371
I2
sS'Air'
p372
I1
sS'Gates'
p373
I2
sS'kept'
p374
I1
sS'Leicester'
p375
I9
sS'Hydrogen'
p376
I1
sS'Gavin'
p377
I1
sS'mother'
p378
I1
sS'claims'
p379
I2
sS'the'
p380
I42
sS'800'
p381
I2
sS'Bobsleigh'
p382
I1
sS"doubts'"
p383
I1
sS'victim'
p384
I1
sS'Yemen'
p385
I1
sS'Oscar'
p386
I6
sS'assassination'
p387
I1
sS'Soundtrack'
p388
I1
sS'prison'
p389
I1
sS'News'
p390
I4
sS'Philip'
p391
I1
sS'Debt'
p392
I1
sS'Wilbur'
p393
I1
sS'James'
p394
I1
sS'breaks'
p395
I2
sS'Worth'
p396
I1
sS'apart'
p397
I1
sS'Lords'
p398
I1
sS'Trump'
p399
I62
sS'54'
p400
I1
sS'50'
p401
I1
sS'Claudio'
p402
I2
sS'Are'
p403
I4
sS'security'
p404
I3
sS'Pentagon'
p405
I3
sS'Warren'
p406
I2
sS"Utd's"
p407
I1
sS'right'
p408
I3
sS'crowd'
p409
I2
sS'people'
p410
I3
sS'sends'
p411
I1
sS'Hangouts'
p412
I1
sS'System'
p413
I1
sS'dead'
p414
I1
sS'Suspect'
p415
I1
sS'election'
p416
I3
sS'Off'
p417
I1
sS'harassment'
p418
I2
sS'contests'
p419
I1
sS'Motherwell'
p420
I1
sS'Lee'
p421
I1
sS'for'
p422
I35
sS"Jones'"
p423
I1
sS'Facebook'
p424
I2
sS'He'
p425
I2
sS'Casts'
p426
I1
sS'Gras'
p427
I1
sS'Unleash'
p428
I1
sS'memorable'
p429
I1
sS'First'
p430
I2
sS'attacks'
p431
I2
sS'accepts'
p432
I1
sS'undocumented'
p433
I1
sS'dinner'
p434
I3
sS'Pedestal'
p435
I1
sS'Still'
p436
I1
sS'Best'
p437
I4
sS'Fed'
p438
I2
sS'Cut'
p439
I2
sS'Cup'
p440
I8
sS'Scotland'
p441
I1
sS'son'
p442
I1
sS'raises'
p443
I2
sS'Provides'
p444
I1
sS'Schiff'
p445
I1
sS'ISIS'
p446
I1
sS'deal'
p447
I1
sS'Reported'
p448
I1
sS'support'
p449
I3
sS'fight'
p450
I2
sS'way'
p451
I1
sS'was'
p452
I3
sS'halls'
p453
I1
sS'launching'
p454
I1
sS'DNC'
p455
I2
sS'offer'
p456
I1
sS'Disability'
p457
I1
sS"'I'm"
p458
I1
sS"kiss'"
p459
I1
sS'Aramco'
p460
I1
sS'silliness'
p461
I1
sS'bids'
p462
I1
sS"Crooks'"
p463
I1
sS'County'
p464
I1
sS'Cotter'
p465
I1
sS'Engineering'
p466
I1
sS'lays'
p467
I1
sS'Vos'
p468
I1
sS'Tony'
p469
I2
sS'pricing'
p470
I1
sS'Sir'
p471
I1
sS'promises'
p472
I2
sS'Bullish'
p473
I1
sS'tournament'
p474
I2
sS'Surpasses'
p475
I1
sS'proves'
p476
I1
sS'Grumbling'
p477
I1
sS'trip'
p478
I1
sS'Begin'
p479
I1
sS'Handle'
p480
I1
sS'when'
p481
I1
sS'Andrew'
p482
I4
sS'actor'
p483
I3
sS'warms'
p484
I1
sS'Olga'
p485
I1
sS'test'
p486
I3
sS'Economy'
p487
I1
sS'picture'
p488
I3
sS"'s"
p489
I4
sS'dies'
p490
I11
sS'outage'
p491
I1
sS'Drive'
p492
I1
sS'scores'
p493
I1
sS'died'
p494
I1
sS'billion'
p495
I2
sS'Recuse'
p496
I1
sS'Pacquiao'
p497
I1
sS'Win'
p498
I2
sS'Corvey'
p499
I1
sS"Exxon's"
p500
I1
sS'Jess'
p501
I1
sS'premiums'
p502
I1
sS"'A"
p503
I1
sS'time'
p504
I1
sS'Times'
p505
I1
sS'coach'
p506
I1
sS'skip'
p507
I1
sS'global'
p508
I1
sS'leads'
p509
I1
sS'manager'
p510
I1
sS'ice'
p511
I1
sS'Films'
p512
I1
sS'dismantling'
p513
I1
sS'Cowell'
p514
I1
sS'Columbia'
p515
I1
sS'essentials'
p516
I1
sS'Dan'
p517
I1
sS'Milestone'
p518
I1
sS'terror'
p519
I2
sS'Let'
p520
I1
sS'Hedge'
p521
I2
sS'Day'
p522
I4
sS'adviser'
p523
I3
sS"staffers'"
p524
I1
sS'Tech'
p525
I1
sS'anonymous'
p526
I1
sS'word'
p527
I1
sS'Where'
p528
I1
sS'swapping'
p529
I1
sS'Just'
p530
I1
sS'did'
p531
I1
sS'posts'
p532
I1
sS'accidentally'
p533
I1
sS'team'
p534
I2
sS'speculation'
p535
I1
sS'round'
p536
I1
sS'Kevin'
p537
I2
sS'Rey'
p538
I1
sS'says'
p539
I6
sS'roadshow'
p540
I1
sS"'really"
p541
I1
sS'adulation'
p542
I1
sS'Shakespeare'
p543
I1
sS'Rich'
p544
I1
sS'chicken'
p545
I1
sS'Seeks'
p546
I3
sS'resurgence'
p547
I1
sS'Head'
p548
I1
sS'supporter'
p549
I2
sS'P10'
p550
I1
sS'Cruz'
p551
I1
sS'suspect'
p552
I1
sS'Independence'
p553
I1
sS'goes'
p554
I1
sS'international'
p555
I1
sS'boost'
p556
I1
sS'Bill'
p557
I6
sS"West'"
p558
I1
sS'Mc'
p559
I8
sS'Mo'
p560
I2
sS'Infrastructure'
p561
I1
sS'Bellew'
p562
I1
sS'groups'
p563
I1
sS'address'
p564
I2
sS"hadn't"
p565
I1
sS'stem'
p566
I1
sS'Changes'
p567
I1
sS'Sees'
p568
I1
sS"'Big'"
p569
I1
sS'guilty'
p570
I1
sS'Travis'
p571
I1
sS'MP'
p572
I1
sS'MS'
p573
I1
sS'Abdel'
p574
I1
sS'Inc'
p575
I1
sS'Justice'
p576
I1
sS"It's"
p577
I3
sS'retires'
p578
I1
sS'Jong'
p579
I2
sS'Alberto'
p580
I1
sS'fake'
p581
I1
sS'crisis'
p582
I1
sS'Sanders'
p583
I3
sS"review'"
p584
I1
sS'troops'
p585
I1
sS'working'
p586
I1
sS'give'
p587
I2
sS'by'
p588
I8
sS'live'
p589
I5
sS'Awards'
p590
I1
sS'Bilden'
p591
I1
sS'scope'
p592
I1
sS'today'
p593
I1
sS"Nam's"
p594
I1
sS'Revamped'
p595
I1
sS'Ben'
p596
I2
sS'riot'
p597
I1
sS'These'
p598
I1
sS'Mount'
p599
I1
sS'Summary'
p600
I1
sS'Time'
p601
I1
sS'fly'
p602
I2
sS'migrants'
p603
I2
sS"wrong'"
p604
I1
sS'Concise'
p605
I1
sS'avoiding'
p606
I1
sS'abortion'
p607
I1
sS'believes'
p608
I1
sS'Prix'
p609
I2
sS'recap'
p610
I4
sS'can'
p611
I1
sS'Wrap'
p612
I1
sS'Tells'
p613
I1
sS'Out'
p614
I2
sS'claim'
p615
I1
sS'figure'
p616
I1
sS'Media'
p617
I1
sS'supremacy'
p618
I1
sS'Dutch'
p619
I1
sS'Britons'
p620
I1
sS'stole'
p621
I1
sS'Shows'
p622
I3
sS'mocks'
p623
I1
sS'winter'
p624
I1
sS'Who'
p625
I1
sS'1'
I3
sS'rallies'
p626
I1
sS'speaks'
p627
I1
sS'Why'
p628
I7
sS'economy'
p629
I1
sS'may'
p630
I3
sS'Always'
p631
I1
sS'spot'
p632
I1
sS'date'
p633
I1
sS'nomination'
p634
I2
sS'man'
p635
I1
sS'Series'
p636
I1
sS'Probe'
p637
I2
sS'Sources'
p638
I1
sS'Radio'
p639
I3
sS"no'"
p640
I1
sS'Brexit'
p641
I5
sS'feature'
p642
I1
sS'flagships'
p643
I2
sS'cuts'
p644
I1
sS'White'
p645
I8
sS'still'
p646
I1
sS'Direction'
p647
I1
sS'Raid'
p648
I1
sS'monitor'
p649
I1
sS"he's"
p650
I2
sS'window'
p651
I1
sS'RB'
p652
I1
sS'World'
p653
I5
sS'Hodgson'
p654
I1
sS'matches'
p655
I1
sS'Deutsche'
p656
I1
sS'nation'
p657
I1
sS'Alliance'
p658
I1
sS'not'
p659
I1
sS'killed'
p660
I2
sS'Executed'
p661
I1
sS"disabled'"
p662
I1
sS'OPEC'
p663
I1
sS'Skip'
p664
I1
sS'didn'
p665
I1
sS'Wagner'
p666
I1
sS'Watches'
p667
I1
sS'Stanley'
p668
I1
sS'Paying'
p669
I1
sS'Live'
p670
I3
sS'year'
p671
I3
sS'Learned'
p672
I1
sS'Caroline'
p673
I1
sS'Carolina'
p674
I1
sS'Satellite'
p675
I1
sS'Added'
p676
I1
sS"'rigged'"
p677
I1
sS'space'
p678
I1
sS'irony'
p679
I1
sS"'test"
p680
I1
sS'Job'
p681
I1
sS'investigation'
p682
I2
sS'Joe'
p683
I1
sS'Key'
p684
I2
sS'shows'
p685
I1
sS'Commerce'
p686
I1
sS'Samsung'
p687
I6
sS'lawmaker'
p688
I1
sS'million'
p689
I2
sS'Judd'
p690
I1
sS'Pivots'
p691
I1
sS'government'
p692
I1
sS'rebel'
p693
I1
sS'fifth-round'
p694
I2
sS'Atletico'
p695
I1
sS'Security'
p696
I2
sS'care'
p697
I2
sS'Blind'
p698
I2
sS'Already'
p699
I1
sS'Battery'
p700
I1
sS'thing'
p701
I1
sS'husband'
p702
I1
sS'Triple'
p703
I1
sS'Touch'
p704
I1
sS'Eric'
p705
I1
sS'first'
p706
I4
sS'Giant'
p707
I2
sS'one'
p708
I2
sS'Black'
p709
I1
sS'suspended'
p710
I1
sS'Harewood'
p711
I1
sS'staff-wide'
p712
I1
sS'Hollywood'
p713
I1
sS'lags'
p714
I1
sS'Raggett'
p715
I1
sS'little'
p716
I1
sS'Monday'
p717
I1
sS'Investigations'
p718
I1
sS'response'
p719
I1
sS'returns'
p720
I1
sS'2'
I4
sS'white'
p721
I1
sS'Repeal'
p722
I2
sS'Response'
p723
I1
sS'friend'
p724
I2
sS'Knockoff'
p725
I1
sS'Subscribers'
p726
I1
sS'that'
p727
I2
sS'season'
p728
I1
sS"men's"
p729
I1
sS'Renewing'
p730
I1
sS'than'
p731
I2
sS'Opts'
p732
I1
sS'10'
p733
I3
sS'13'
p734
I1
sS'14'
p735
I1
sS'27-year'
p736
I1
sS"Furious'"
p737
I1
sS'future'
p738
I1
sS'were'
p739
I1
sS'shakeup'
p740
I1
sS'and'
p741
I30
sS'\xea1m'
p742
I1
sS'turned'
p743
I1
sS'DC'
p744
I1
sS'Submit'
p745
I1
sS'say'
p746
I1
sS'conspiracy'
p747
I1
sS'Calm'
p748
I1
sS'sells'
p749
I1
sS'blunder'
p750
I1
sS'Shaun'
p751
I1
sS'Jewish'
p752
I1
sS'De'
p753
I1
sS'Richest'
p754
I1
sS'zoo'
p755
I1
sS'squad'
p756
I1
sS'switching'
p757
I1
sS'Democrats'
p758
I1
sS'Rugby'
p759
I2
sS'knew'
p760
I2
sS'Rallies'
p761
I1
sS'DHS'
p762
I1
sS'GOP'
p763
I4
sS"science'"
p764
I1
sS'Allegations'
p765
I1
sS"terrorism'"
p766
I1
sS'senior'
p767
I1
sS'Broncos'
p768
I1
sS'shot'
p769
I1
sS'show'
p770
I1
sS'allegations'
p771
I1
sS'infant'
p772
I1
sS'Stephen'
p773
I1
sS'one-frame'
p774
I1
sS'ground'
p775
I1
sS'Wants'
p776
I2
sS'We'
p777
I4
sS'Woman'
p778
I2
sS'title'
p779
I1
sS'behind'
p780
I1
sS'crime'
p781
I1
sS'only'
p782
I2
sS'going'
p783
I1
sS'black'
p784
I1
sS'dispute'
p785
I1
sS'hippo'
p786
I1
sS'get'
p787
I2
sS'Large'
p788
I1
sS'Turn'
p789
I1
sS'killers'
p790
I1
sS"'unreal'"
p791
I1
sS'Amit'
p792
I1
sS'Amir'
p793
I1
sS'Republican'
p794
I2
sS'Champs'
p795
I1
sS'worried'
p796
I1
sS'Manchester'
p797
I2
sS"press'"
p798
I1
sS'vision'
p799
I1
sS'declared'
p800
I1
sS"France's"
p801
I1
sS"job'"
p802
I1
sS'college'
p803
I1
sS"'vulnerable'"
p804
I1
sS'Grand'
p805
I2
sS'Fares'
p806
I1
sS'fails'
p807
I1
sS'detect'
p808
I1
sS'federal'
p809
I1
sS'3'
I3
sS'Leeds'
p810
I1
sS'altercation'
p811
I1
sS'Told'
p812
I1
sS'Than'
p813
I1
sS'notice'
p814
I1
sS'Johnson'
p815
I1
sS'screen'
p816
I1
sS'killing'
p817
I1
sS'Earth-like'
p818
I1
sS'awards'
p819
I1
sS'Each'
p820
I1
sS'3310'
p821
I1
sS"'pending"
p822
I1
sS'Grounds'
p823
I1
sS'reaction'
p824
I1
sS'Post-Tillerson'
p825
I1
sS'rugby'
p826
I1
sS'Give'
p827
I1
sS'Kane'
p828
I1
sS'S'
I11
sS'Malaysia'
p829
I1
sS's'
I14
sS'workplace'
p830
I1
sS"'Aliens"
p831
I1
sS'wheels'
p832
I1
sS"can't"
p833
I1
sS'deported'
p834
I1
sS"'The"
p835
I3
sS'among'
p836
I2
sS'Jeremy'
p837
I3
sS'provocation'
p838
I1
sS'cancer'
p839
I1
sS'Jose'
p840
I1
sS'Sachs'
p841
I1
sS'61'
p842
I2
sS'grants'
p843
I1
sS'comeback'
p844
I1
sS'Pledges'
p845
I1
sS"Liverpool's"
p846
I1
sS'come'
p847
I1
sS'Downgrades'
p848
I1
sS'absence'
p849
I1
sS'Paid'
p850
I1
sS'Tanks'
p851
I1
sS'500'
p852
I1
sS'wants'
p853
I3
sS'Six'
p854
I8
sS'Luring'
p855
I1
sS'Trump-Russia'
p856
I2
sS'dramatic'
p857
I1
sS'Halts'
p858
I1
sS'former'
p859
I1
sS'4-0'
p860
I1
sS'Tesla'
p861
I3
sS'Birmingham'
p862
I1
sS'sex'
p863
I2
sS"coup'"
p864
I1
sS'career'
p865
I1
sS'Potential'
p866
I1
sS'Marshals'
p867
I1
sS'Open'
p868
I1
sS'Disappear'
p869
I1
sS'Slow'
p870
I1
sS'Stokes'
p871
I1
sS'Tennis'
p872
I1
sS'Referendum'
p873
I1
sS"Netflix's"
p874
I1
sS'Better'
p875
I1
sS'Charge'
p876
I1
sS'rally'
p877
I3
sS'Israel'
p878
I1
sS'Plans'
p879
I2
sS'media'
p880
I3
sS'Nashville'
p881
I1
sS'tour'
p882
I1
sS'inquiry'
p883
I2
sS'Blood'
p884
I1
sS'Disappointed'
p885
I1
sS'week'
p886
I2
sS'finish'
p887
I2
sS'I'
I3
sS'Rowing'
p888
I1
sS'Barcelona'
p889
I4
sS'companion'
p890
I1
sS'producers'
p891
I1
sS'IRA'
p892
I1
sS"been'"
p893
I1
sS'ID'
p894
I1
sS'Own'
p895
I1
sS'Says'
p896
I9
sS'charges'
p897
I1
sS'Is'
p898
I4
sS'TV'
p899
I4
sS'accountable'
p900
I1
sS'In'
p901
I7
sS'If'
p902
I2
sS'duty'
p903
I1
sS'United'
p904
I4
sS'Service'
p905
I1
sS'Ways'
p906
I1
sS'Ping'
p907
I1
sS'actions'
p908
I1
sS'Reduction'
p909
I1
sS'kill'
p910
I1
sS'touch'
p911
I1
sS'Markets'
p912
I3
sS'EPA'
p913
I2
sS'announcement'
p914
I2
sS'death'
p915
I3
sS'asthma'
p916
I1
sS"'undermines"
p917
I1
sS"we've"
p918
I1
sS'Zuckerberg'
p919
I1
sS'Malek'
p920
I1
sS'treatment'
p921
I1
sS'aborts'
p922
I1
sS'Jong-nam'
p923
I3
sS'Jaziri'
p924
I1
sS'around'
p925
I3
sS'rules'
p926
I2
sS'Monk'
p927
I1
sS'gonna'
p928
I1
sS'early'
p929
I2
sS'mom'
p930
I1
sS'vacuum'
p931
I1
sS'world'
p932
I1
sS'SVP'
p933
I1
sS'Shark'
p934
I1
sS'Bellingham'
p935
I1
sS'intel'
p936
I1
sS'facing'
p937
I1
sS'hails'
p938
I1
sS'benefit'
p939
I1
sS't'
I3
sS'Before'
p940
I2
sS'Democracy'
p941
I1
sS'West'
p942
I3
sS'Mark'
p943
I1
sS'New'
p944
I8
sS'Swansea'
p945
I1
sS'Things'
p946
I1
sS'Attorney'
p947
I2
sS'dimensions'
p948
I1
sS'Prosecutions'
p949
I1
sS'legal'
p950
I1
sS'moon'
p951
I2
sS"'football"
p952
I1
sS'critical'
p953
I1
sS'Term'
p954
I1
sS'Hamann'
p955
I1
sS'leadership'
p956
I1
sS'Paire'
p957
I1
sS'went'
p958
I1
sS'Tribe'
p959
I1
sS'Fabregas'
p960
I1
sS'of'
p961
I39
sS"Project'"
p962
I1
sS'Trade'
p963
I2
sS'Wednesbury'
p964
I1
sS'stand'
p965
I2
sS'Draymond'
p966
I1
sS'or'
p967
I3
sS'organizers'
p968
I1
sS'quietly'
p969
I1
sS'No'
p970
I1
sS'Memories'
p971
I1
sS'Away'
p972
I1
sS'watchdog'
p973
I1
sS'your'
p974
I1
sS'Week'
p975
I3
sS'her'
p976
I2
sS'Norma'
p977
I1
sS'Jamie'
p978
I1
sS'start'
p979
I1
sS'low'
p980
I1
sS'lot'
p981
I1
sS'Obama'
p982
I1
sS'J'
I1
sS"gladiators'"
p983
I1
sS'Error'
p984
I1
sS'clones'
p985
I1
sS'with'
p986
I11
sS'Guide'
p987
I1
sS'IICSA'
p988
I1
sS'hire'
p989
I2
sS'Hales'
p990
I1
sS'House'
p991
I9
sS'Heseltine'
p992
I1
sS'Foxes'
p993
I2
sS'unveils'
p994
I2
sS'Eddie'
p995
I1
sS'Crisis'
p996
I1
sS'Special'
p997
I3
sS'Blow'
p998
I1
sS'leaked'
p999
I1
sS'Asks'
p1000
I1
sS'Space'
p1001
I7
sS'Gustavito'
p1002
I1
sS'al'
p1003
I1
sS'general'
p1004
I1
sS'How'
p1005
I4
sS'as'
p1006
I15
sS'reliability'
p1007
I1
sS'at'
p1008
I19
sS'planets'
p1009
I1
sS'enterprise-friendly'
p1010
I1
sS'politics'
p1011
I1
sS'pre-season'
p1012
I1
sS'Quavo'
p1013
I1
sS'Burnley'
p1014
I2
sS"Pimco's"
p1015
I1
sS'Lab'
p1016
I1
sS'Dark'
p1017
I1
sS'8-year-old'
p1018
I1
sS'Watson'
p1019
I2
sS'Teases'
p1020
I1
sS'5'
I8
sS'you'
p1021
I1
sS'Ross'
p1022
I1
sS'Tottenham'
p1023
I1
sS'Kurdish'
p1024
I1
sS'Great'
p1025
I1
sS'Suffers'
p1026
I1
sS'Alex'
p1027
I2
sS'parkour'
p1028
I1
sS'students'
p1029
I1
sS'Hoppers'
p1030
I1
sS'Village'
p1031
I1
sS'Literary'
p1032
I1
sS'coverage'
p1033
I1
sS'CNN'
p1034
I27
sS'building'
p1035
I1
sS'mourned'
p1036
I1
sS'Major'
p1037
I1
sS'Vardy'
p1038
I1
sS"Moonlight'"
p1039
I1
sS'invest'
p1040
I1
sS'3-1'
p1041
I3
sS'Street'
p1042
I2
sS"'I"
p1043
I1
sS'Year'
p1044
I1
sS'Harassment'
p1045
I1
sS'all'
p1046
I1
sS'Van'
p1047
I1
sS'skeleton'
p1048
I1
sS'ESPN'
p1049
I2
sS'Tube'
p1050
I2
sS'Obamacare'
p1051
I5
sS'Moon'
p1052
I2
sS'Take'
p1053
I1
sS'talks'
p1054
I2
sS'carpet'
p1055
I2
sS'Brown'
p1056
I1
sS'Elli'
p1057
I1
sS'Championship'
p1058
I1
sS'gymnast'
p1059
I1
sS'NCAA'
p1060
I1
sS'insulate'
p1061
I1
sS'to'
p1062
I82
sS'lawmakers'
p1063
I1
sS'Backlash'
p1064
I1
sS'case'
p1065
I2
sS'Buffett'
p1066
I4
sS'very'
p1067
I1
sS'worst'
p1068
I1
sS'condition'
p1069
I1
sS"Don't"
p1070
I2
sS'celebrity'
p1071
I1
sS'Retire'
p1072
I1
sS'list'
p1073
I2
sS'Kill'
p1074
I2
sS'Carpet'
p1075
I1
sS'Impact'
p1076
I1
sS'grabs'
p1077
I1
sS'Should'
p1078
I1
sS'Ferrell'
p1079
I1
sS"Trump's"
p1080
I9
sS'what'
p1081
I4
sS'Korea'
p1082
I2
sS'Sportsday'
p1083
I1
sS'ovarian'
p1084
I1
sS"'too"
p1085
I1
sS'version'
p1086
I1
sS'Worked'
p1087
I1
sS'public'
p1088
I2
sS'full'
p1089
I1
sS'Prosecutors'
p1090
I1
sS'Ahead'
p1091
I2
sS'Briefing'
p1092
I1
sS'praises'
p1093
I1
sS'Bluster'
p1094
I1
sS'Laren'
p1095
I1
sS"'most"
p1096
I1
sS'Limos'
p1097
I1
sS'ahead'
p1098
I1
sS"Shell's"
p1099
I1
sS'airport'
p1100
I1
sS'breakdown'
p1101
I1
sS'action'
p1102
I1
sS'Border'
p1103
I1
sS'options'
p1104
I1
sS'S8'
p1105
I2
sS'S3'
p1106
I1
sS"Theory'"
p1107
I1
sS'Top'
p1108
I2
sS'Watergate-style'
p1109
I1
sS'screens'
p1110
I1
sS'ask'
p1111
I1
sS'send'
p1112
I1
sS'toys'
p1113
I1
sS'Climb'
p1114
I1
sS'select'
p1115
I1
sS'takes'
p1116
I2
sS'prebuttal'
p1117
I1
sS'two'
p1118
I3
sS'Peak'
p1119
I1
sS'Geert'
p1120
I1
sS"People's"
p1121
I1
sS'Russian'
p1122
I3
sS'injury'
p1123
I1
sS'more'
p1124
I4
sS'Boeing'
p1125
I1
sS'Hails'
p1126
I1
sS'company'
p1127
I1
sS'Wyatt'
p1128
I1
sS'American'
p1129
I1
sS'Roger'
p1130
I1
sS'known'
p1131
I1
sS'town'
p1132
I1
sS'Looking'
p1133
I2
sS'Now'
p1134
I2
sS'vs'
p1135
I1
sS'v'
I5
sS'Wade'
p1136
I2
sS'Your'
p1137
I2
sS'history'
p1138
I1
sS'Conference'
p1139
I1
sS'shark'
p1140
I1
sS"'untrue'"
p1141
I1
sS'Years'
p1142
I2
sS"agencies'"
p1143
I1
sS'needs'
p1144
I1
sS'Opening'
p1145
I1
sS'Bonus'
p1146
I2
sS'breaking'
p1147
I1
sS'reject'
p1148
I1
sS'before'
p1149
I1
sS'orchestrator'
p1150
I1
sS'Bankers'
p1151
I1
sS'Campaign-level'
p1152
I1
sS'tries'
p1153
I1
sS'CRISPR'
p1154
I1
sS'Kelly'
p1155
I3
sS'Syria'
p1156
I1
sS'Antarctic'
p1157
I1
sS'a'
I27
sS'Mexico'
p1158
I1
sS'Brennan'
p1159
I1
sS'Sean'
p1160
I1
sS'pay'
p1161
I1
sS'dream'
p1162
I1
sS'Film'
p1163
I1
sS'chicks'
p1164
I1
sS'What'
p1165
I2
sS"don't"
p1166
I1
sS'radar'
p1167
I1
sS'through'
p1168
I1
sS'committee'
p1169
I2
sS'Wilders'
p1170
I1
sS'its'
p1171
I2
sS'25'
p1172
I1
sS'27'
p1173
I1
sS'March'
p1174
I2
sS'21'
p1175
I1
sS'Stein'
p1176
I1
sS'late'
p1177
I1
sS'Kimi'
p1178
I1
sS'speech'
p1179
I3
sS'might'
p1180
I2
sS'alter'
p1181
I1
sS'Reaction'
p1182
I1
sS'return'
p1183
I1
sS'seeking'
p1184
I1
sS'propose'
p1185
I2
sS'Michael'
p1186
I2
sS'Worried'
p1187
I1
sS'framework'
p1188
I1
sS'foot'
p1189
I1
sS'Senior'
p1190
I1
sS'speculate'
p1191
I1
sS'bigger'
p1192
I1
sS'Pussycats'
p1193
I1
sS"'Islamofascism'"
p1194
I1
sS'always'
p1195
I1
sS'Aliens'
p1196
I1
sS'Potter'
p1197
I1
sS'IPO'
p1198
I3
sS'spy'
p1199
I1
sS'Council'
p1200
I1
sS'Scottish'
p1201
I1
sS"'renewal"
p1202
I1
sS'shocking'
p1203
I1
sS'Liam'
p1204
I1
sS"isn't"
p1205
I2
sS'status'
p1206
I1
sS'Co-Founders'
p1207
I1
sS'Tax'
p1208
I2
sS'Saints'
p1209
I2
sS'Joseph'
p1210
I1
sS'Surface'
p1211
I2
sS'Federer'
p1212
I1
sS"'Hundreds'"
p1213
I1
sS'More'
p1214
I4
sS'Lowest'
p1215
I1
sS'Picture'
p1216
I2
sS'dominates'
p1217
I1
sS'since'
p1218
I3
sS'publish'
p1219
I1
sS'health'
p1220
I2
sS'Israeli-Palestinian'
p1221
I1
sS'Report'
p1222
I1
sS"'scum'"
p1223
I1
sS"'must"
p1224
I1
sS'off-screen'
p1225
I1
sS'Ukraine'
p1226
I1
sS'timeline'
p1227
I1
sS'Nine'
p1228
I1
sS'members'
p1229
I1
sS'EU'
p1230
I1
sS'Serious'
p1231
I1
sS'teach'
p1232
I1
sS'Male'
p1233
I1
sS'Lavrov'
p1234
I1
sS'El'
p1235
I1
sS'owners'
p1236
I1
sS'benefits'
p1237
I1
sS'service'
p1238
I1
sS'Evans'
p1239
I1
sS'People'
p1240
I4
sS'Boston'
p1241
I1
sS'modularity'
p1242
I1
sS'success'
p1243
I1
sS'George'
p1244
I1
sS'Past'
p1245
I1
sS'NASA'
p1246
I1
sS'Expect'
p1247
I1
sS'threat'
p1248
I1
sS'Elon'
p1249
I1
sS'fallen'
p1250
I1
sS'Dietmar'
p1251
I1
sS'Konta'
p1252
I1
sS'Goes'
p1253
I1
sS'Triggs-Hodge'
p1254
I1
sS'heads'
p1255
I1
sS'Cummings'
p1256
I1
sS'storm'
p1257
I1
sS'Everton'
p1258
I1
sS'selling'
p1259
I1
sS'Norkett'
p1260
I1
sS'Gamblers'
p1261
I1
sS'waterproofing'
p1262
I1
sS'defends'
p1263
I1
sS'Officials'
p1264
I1
sS'marriage'
p1265
I1
sS'2022'
p1266
I1
sS'motivation'
p1267
I1
sS'nominee'
p1268
I3
sS'Movie'
p1269
I1
sS'SEAL'
p1270
I2
sS'WBC'
p1271
I1
sS'Forge'
p1272
I1
sS'aged'
p1273
I2
sS'Supporters'
p1274
I1
sS'Power'
p1275
I1
sS'Food'
p1276
I1
sS'officers'
p1277
I1
sS'lifts'
p1278
I1
sS'Germany'
p1279
I2
sS"plots'"
p1280
I1
sS'Kim'
p1281
I5
sS'Junkyard'
p1282
I1
sS'With'
p1283
I5
sS'Spirit'
p1284
I1
sS'Remix'
p1285
I1
sS"correspondents'"
p1286
I2
sS'Episode'
p1287
I2
sS'eggs'
p1288
I1
sS'measures'
p1289
I1
sS"'Meg'"
p1290
I1
sS'Optimism'
p1291
I1
sS'most'
p1292
I1
sS'Chief'
p1293
I1
sS'plan'
p1294
I2
sS'70'
p1295
I1
sS'Coptic'
p1296
I1
sS'The'
p1297
I14
sS'Called'
p1298
I1
sS'Restore'
p1299
I1
sS'Google'
p1300
I4
sS'mobile'
p1301
I1
sS'Alexis'
p1302
I1
sS'attacking'
p1303
I1
sS'Cloud'
p1304
I1
sS"'brain"
p1305
I1
sS'Tillerson'
p1306
I1
sS"'at"
p1307
I1
sS'Had'
p1308
I1
sS'session'
p1309
I1
sS'Hill'
p1310
I2
sS'Flintoff'
p1311
I1
sS'Has'
p1312
I2
sS'costing'
p1313
I1
sS'impact'
p1314
I1
sS'rocket'
p1315
I1
sS'Premiere'
p1316
I1
sS'Jr'
p1317
I1
sS'failed'
p1318
I1
sS'8'
I2
sS'Pool'
p1319
I1
sS'giants'
p1320
I1
sS'sacking'
p1321
I3
sS'his'
p1322
I1
sS'dominant'
p1323
I1
sS'Ex-boxer'
p1324
I2
sS'banned'
p1325
I1
sS'While'
p1326
I1
sS'fastest'
p1327
I2
sS'Paxton'
p1328
I3
sS'during'
p1329
I3
sS'Hotspur'
p1330
I1
sS"'very"
p1331
I1
sS'Olympic'
p1332
I2
sS'Help'
p1333
I1
sS"Pence's"
p1334
I1
sS"'did"
p1335
I1
sS'bird'
p1336
I1
sS'investigate'
p1337
I2
sS'spiked'
p1338
I1
sS'Craig'
p1339
I1
sS'Lions'
p1340
I1
sS'Equating'
p1341
I1
sS'set'
p1342
I3
sS'For'
p1343
I1
sS'achieved'
p1344
I1
sS'National'
p1345
I2
sS'startup'
p1346
I1
sS'Chaos'
p1347
I2
sS'France'
p1348
I2
sS'Auditions'
p1349
I1
sS'see'
p1350
I1
sS'are'
p1351
I6
sS'sea'
p1352
I1
sS'Correspondents'
p1353
I1
sS'Firms'
p1354
I1
sS'pictures'
p1355
I1
sS'Blair'
p1356
I1
sS'won'
p1357
I1
sS'Clones'
p1358
I1
sS'probably'
p1359
I1
sS"'real"
p1360
I1
sS'Age'
p1361
I3
sS'King'
p1362
I1
sS'Blackburn'
p1363
I1
sS'Moroccans'
p1364
I1
sS'Could'
p1365
I3
sS'Florida'
p1366
I2
sS'Departs'
p1367
I1
sS'Anew'
p1368
I1
sS'Tale'
p1369
I1
sS'Jobs'
p1370
I1
sS'Mardi'
p1371
I1
sS'league'
p1372
I1
sS'Unexpected'
p1373
I1
sS'Neil'
p1374
I1
sS'Hard'
p1375
I1
sS"Snap's"
p1376
I2
sS"spirit'"
p1377
I1
sS'became'
p1378
I1
sS'Green'
p1379
I1
sS'Denies'
p1380
I2
sS'reasons'
p1381
I1
sS"'Twister'"
p1382
I1
sS'community'
p1383
I2
sS'Nobel'
p1384
I1
sS'Korbut'
p1385
I1
sS'agents'
p1386
I1
sS'Way'
p1387
I1
sS'000m'
p1388
I2
sS'suppressing'
p1389
I1
sS'War'
p1390
I1
sS'Shakes'
p1391
I2
sS'political'
p1392
I1
sS'due'
p1393
I1
sS'Difficulty'
p1394
I1
sS'Takeover'
p1395
I1
sS'California'
p1396
I1
sS'Plan'
p1397
I3
sS'meeting'
p1398
I1
sS'fret'
p1399
I1
sS'4'
I2
sS'cyclist'
p1400
I1
sS'nukes'
p1401
I1
sS'Allies'
p1402
I1
sS'1950s'
p1403
I1
sS'fire'
p1404
I1
sS'Newcastle'
p1405
I1
sS'Saudi'
p1406
I2
sS'Wolves'
p1407
I1
sS'Drops'
p1408
I1
sS'Commencement'
p1409
I1
sS'Old'
p1410
I1
sS'bill'
p1411
I2
sS'Reassure'
p1412
I1
sS'budget'
p1413
I3
sS'Snapchat'
p1414
I1
sS'Circling'
p1415
I1
sS'Cuts'
p1416
I2
sS'Market'
p1417
I2
sS'pack'
p1418
I1
sS'City'
p1419
I7
sS'Italy'
p1420
I4
sS'Threatens'
p1421
I2
sS'Strategy'
p1422
I1
sS"Holmes'"
p1423
I1
sS'Prison'
p1424
I1
sS'ready'
p1425
I1
sS'Millwall'
p1426
I2
sS'Bipartisan'
p1427
I1
sS'FAS'
p1428
I1
sS'Jumps'
p1429
I1
sS'Programs'
p1430
I1
sS'graves'
p1431
I1
sS'Rahman'
p1432
I1
sS'About'
p1433
I2
sS'used'
p1434
I1
sS'Immigrants'
p1435
I1
sS'moment'
p1436
I2
sS'000'
p1437
I4
sS'uses'
p1438
I1
sS"'died'"
p1439
I1
sS'Flight'
p1440
I1
sS'Project'
p1441
I1
sS'task'
p1442
I1
sS'Almost'
p1443
I2
sS'Miller'
p1444
I1
sS'Goodlatte'
p1445
I1
sS'Migration'
p1446
I1
sS'Oscars'
p1447
I11
sS'Manny'
p1448
I1
sS'withdraw'
p1449
I1
sS'Talks'
p1450
I1
sS'Girl'
p1451
I1
sS'clearance'
p1452
I1
sS'ambassador'
p1453
I1
sS'Takes'
p1454
I2
sS'Breadwinner'
p1455
I1
sS'settlements'
p1456
I2
sS'Labor'
p1457
I1
sS'press'
p1458
I2
sS'openly'
p1459
I1
sS"We're"
p1460
I1
sS'questions'
p1461
I2
sS'startups'
p1462
I1
sS'gems'
p1463
I1
sS'cut'
p1464
I1
sS'cup'
p1465
I1
sS'advisers'
p1466
I1
sS'workers'
p1467
I1
sS'Nokia'
p1468
I2
sS"'rare'"
p1469
I1
sS'win'
p1470
I4
sS'Marine'
p1471
I1
sS'On'
p1472
I2
sS'Faster'
p1473
I1
sS'demands'
p1474
I1
sS'contacts'
p1475
I1
sS"homes'"
p1476
I1
sS'game'
p1477
I2
sS'Behavioral'
p1478
I1
sS'Russiagate'
p1479
I1
sS"Israel's"
p1480
I1
sS'Christian'
p1481
I1
sS'carers'
p1482
I1
sS"Helmets'"
p1483
I1
sS'Skeleton'
p1484
I1
sS'flub'
p1485
I1
sS'ignore'
p1486
I2
sS"complicated'"
p1487
I1
sS'Little'
p1488
I1
sS"Lockheed's"
p1489
I1
sS'parade'
p1490
I2
sS'some'
p1491
I2
sS'back'
p1492
I2
sS'MWC'
p1493
I2
sS'streaming'
p1494
I1
sS'Mourinho'
p1495
I1
sS'Andy'
p1496
I2
sS'30m'
p1497
I1
sS'Academical'
p1498
I1
sS'Bannon'
p1499
I1
sS'Dame'
p1500
I1
sS'Seoul'
p1501
I1
sS'Haass'
p1502
I1
sS'decision'
p1503
I1
sS'Hindenburg'
p1504
I1
sS'epic'
p1505
I1
sS"Here's"
p1506
I1
sS'Something'
p1507
I2
sS'be'
p1508
I7
sS'jumps'
p1509
I1
sS'Economics'
p1510
I1
sS'David'
p1511
I3
sS'Stopping'
p1512
I1
sS'Russia'
p1513
I11
sS'Sanchez'
p1514
I1
sS'Taylor'
p1515
I1
sS'anything'
p1516
I1
sS'Roe'
p1517
I2
sS'range'
p1518
I1
sS'slams'
p1519
I1
sS"Won't"
p1520
I1
sS'Pong'
p1521
I1
sS'shiny'
p1522
I1
sS'Common'
p1523
I1
sS'Simon'
p1524
I1
sS'caretaker'
p1525
I1
sS'into'
p1526
I1
sS'Young'
p1527
I1
sS'Their'
p1528
I4
sS'Flights'
p1529
I1
sS'Speech'
p1530
I2
sS'spending'
p1531
I1
sS'Anthony'
p1532
I1
sS'Coverage'
p1533
I1
sS'Gerald'
p1534
I1
sS'forward'
p1535
I1
sS'Bond'
p1536
I1
sS'Fly'
p1537
I1
sS'Sutton'
p1538
I1
sS'0-0'
p1539
I1
sS'0-1'
p1540
I1
sS'immigration'
p1541
I1
sS'Raikkonen'
p1542
I1
sS'glamour'
p1543
I1
sS"miracle'"
p1544
I1
sS'ceremonies'
p1545
I1
sS'Office'
p1546
I1
sS'Jeff'
p1547
I2
sS'Twitter'
p1548
I1
sS'Indoor'
p1549
I1
sS'up'
p1550
I8
sS'Murray'
p1551
I2
sS'Offers'
p1552
I1
sS'prosecutor'
p1553
I2
sS'called'
p1554
I1
sS'36-15'
p1555
I1
sS'constant'
p1556
I1
sS'Ambitions'
p1557
I1
sS'Needed'
p1558
I1
sS'Attack'
p1559
I2
sS'warning'
p1560
I1
sS'Snap'
p1561
I1
sS'presides'
p1562
I1
sS"changes'"
p1563
I1
sS'rainbow'
p1564
I1
sS'Murder'
p1565
I1
sS'May'
p1566
I3
sS'peace'
p1567
I1
sS'fears'
p1568
I1
sS'backs'
p1569
I1
sS'club'
p1570
I1
sS'Wasted'
p1571
I1
sS'Man'
p1572
I5
sS'Red'
p1573
I3
sS'mastermind'
p1574
I1
sS'Cash'
p1575
I1
sS'resign'
p1576
I1
sS'Moonlight'
p1577
I4
sS"soar'"
p1578
I1
sS'Derby'
p1579
I1
sS'Riverdale'
p1580
I1
sS"Salvador's"
p1581
I1
sS'urged'
p1582
I1
sS'Confirms'
p1583
I1
sS'Uzi'
p1584
I1
sS'Tunisia'
p1585
I1
sS'As'
p1586
I1
sS'Scott'
p1587
I1
sS'2005'
p1588
I1
sS'far'
p1589
I1
sS"back'"
p1590
I1
sS'mix-up'
p1591
I3
sS'Sell'
p1592
I1
sS'Ibrahimovic'
p1593
I2
sS'softer'
p1594
I1
sS'Department'
p1595
I2
sS'Bulls'
p1596
I1
sS'issues'
p1597
I2
sS'breached'
p1598
I1
sS'Netanyahu'
p1599
I3
sS'Not'
p1600
I3
sS"'Go"
p1601
I1
sS'include'
p1602
I1
sS'meetings'
p1603
I2
sS'breathing'
p1604
I1
sS'Albion'
p1605
I1
sS'P'
I1
sS'Risks'
p1606
I1
sS'Staking'
p1607
I1
sS'touchline'
p1608
I1
sS"help'"
p1609
I1
sS'Investors'
p1610
I1
sS'Brisbane'
p1611
I2
sS"Leicester'"
p1612
I1
sS'populist'
p1613
I1
sS'Defense'
p1614
I1
sS'Stings'
p1615
I1
sS'car'
p1616
I2
sS"Uber's"
p1617
I2
sS'ceasefire'
p1618
I1
sS'Theranos'
p1619
I1
sS'Spending'
p1620
I1
sS'flu'
p1621
I1
sS'Vehicle'
p1622
I1
sS'Tax-Reporting'
p1623
I1
sS'State'
p1624
I4
sS'video'
p1625
I2
sS'Organization'
p1626
I1
sS'concludes'
p1627
I1
sS'Brace'
p1628
I1
sS'honors'
p1629
I1
sS'Governors'
p1630
I2
sS'Hammond'
p1631
I1
sS'cell'
p1632
I1
sS'waiting'
p1633
I1
sS'Gestede'
p1634
I1
sS'Video'
p1635
I27
sS'America'
p1636
I1
sS'Former'
p1637
I2
sS'Might'
p1638
I1
sS'Thrives'
p1639
I1
sS'led'
p1640
I1
sS'stance'
p1641
I1
sS'Startup'
p1642
I2
sS'poverty'
p1643
I1
sS'Commonwealth'
p1644
I1
sS'Chinese'
p1645
I2
sS'Energy'
p1646
I1
sS'30'
p1647
I1
sS'Back'
p1648
I1
sS'Fortunes'
p1649
I1
sS'Vietnam'
p1650
I1
sS'addresses'
p1651
I1
sS'Doctor'
p1652
I1
sS"'get"
p1653
I1
sS'app'
p1654
I2
sS'Farah'
p1655
I1
sS'private'
p1656
I1
sS'FA'
p1657
I7
sS'Hove'
p1658
I1
sS'from'
p1659
I5
sS'Ernie'
p1660
I1
sS'Attend'
p1661
I1
sS'Driver'
p1662
I1
sS'next'
p1663
I1
sS'NATO'
p1664
I1
sS'cheeky'
p1665
I1
sS'Land'
p1666
I3
sS'on'
p1667
I37
sS'started'
p1668
I1
sS'baby'
p1669
I1
sS'Guy'
p1670
I2
sS'women'
p1671
I1
sS'customer'
p1672
I1
sS'F1'
p1673
I2
sS'account'
p1674
I1
sS'this'
p1675
I2
sS'challenge'
p1676
I1
sS"unfairly'"
p1677
I1
sS'meet'
p1678
I1
sS'process'
p1679
I2
sS'high'
p1680
I1
sS'Liberation'
p1681
I1
sS"'set"
p1682
I1
sS'Policy'
p1683
I1
sS'Party'
p1684
I1
sS"'ready"
p1685
I1
sS'democracy'
p1686
I1
sS"'Beauty"
p1687
I1
sS'Warrington'
p1688
I2
sS'winners'
p1689
I2
sS'unites'
p1690
I1
sS'UK'
p1691
I2
sS'attend'
p1692
I1
sS'British'
p1693
I2
sS'abuse'
p1694
I4
sS'ethnic'
p1695
I1
sS'Donnell'
p1696
I2
sS'Uber'
p1697
I5
sS'Politico'
p1698
I1
sS"'determined"
p1699
I1
sS'robot'
p1700
I1
sS'One'
p1701
I1
sS'Blackpool'
p1702
I1
sS'Reputation'
p1703
I1
sS'Tablets'
p1704
I1
sS'six-year'
p1705
I1
sS'Ginsburg'
p1706
I1
sS'move'
p1707
I1
sS"king's"
p1708
I1
sS'Supernatural'
p1709
I1
sS'looks'
p1710
I1
sS'Hearts'
p1711
I1
sS'Orbiting'
p1712
I1
sS'Match'
p1713
I2
sS'Ayr'
p1714
I1
sS"'strongly"
p1715
I1
sS"'cash"
p1716
I1
sS'Paperwork'
p1717
I1
sS'exclusion'
p1718
I1
sS'll'
p1719
I1
sS'nostalgia'
p1720
I1
sS'labor'
p1721
I1
sS'Director'
p1722
I1
sS'Championships'
p1723
I3
sS'2018'
p1724
I4
sS'2017'
p1725
I19
sS'2016'
p1726
I4
sS'dad'
p1727
I1
sS'Dubai'
p1728
I5
sS'crash'
p1729
I2
sS'Car'
p1730
I1
sS'Hungry'
p1731
I1
sS'Preside'
p1732
I1
sS'Can'
p1733
I2
sS'day'
p1734
I4
sS'presidential'
p1735
I1
sS'Summer'
p1736
I1
sS'bills'
p1737
I1
sS'Weekly'
p1738
I3
sS'From'
p1739
I2
sS'doing'
p1740
I2
sS'Next'
p1741
I3
sS'80'
p1742
I2
sS'sexual'
p1743
I2
sS'special'
p1744
I2
sS'out'
p1745
I2
sS"Ferrari's"
p1746
I1
sS'Vert'
p1747
I1
sS"'"
I4
sS'CEO'
p1748
I3
sS'Heir'
p1749
I1
sS"nationalism'"
p1750
I1
sS'China'
p1751
I4
sS'Nearly'
p1752
I1
sS'Trying'
p1753
I1
sS'supports'
p1754
I1
sS'red'
p1755
I2
sS'Vern'
p1756
I1
sS'disclose'
p1757
I2
sS'cricketer'
p1758
I1
sS'This'
p1759
I4
sS'transfer'
p1760
I1
sS'Surge'
p1761
I1
sS'Perks'
p1762
I1
sS'Ryan'
p1763
I3
sS'A4109'
p1764
I1
sS'Senator'
p1765
I1
sS'Spend'
p1766
I2
sS'allies'
p1767
I1
sS'Durban'
p1768
I1
sS'Point'
p1769
I1
sS'Madrid'
p1770
I1
sS'could'
p1771
I2
sS'times'
p1772
I1
sS'Drone'
p1773
I1
sS'Aides'
p1774
I1
sS'Superbugs'
p1775
I1
sS"'soft"
p1776
I1
sS'there'
p1777
I1
sS'apps'
p1778
I1
sS'Review'
p1779
I1
sS"Paxton's"
p1780
I1
sS'reaches'
p1781
I1
sS"Italy's"
p1782
I1
sS'prank'
p1783
I2
sS'Boris'
p1784
I1
sS'has'
p1785
I1
sS'North'
p1786
I2
sS'Eastern'
p1787
I1
sS'Shane'
p1788
I1
sS'Funds'
p1789
I2
sS'Chokes'
p1790
I1
sS'their'
p1791
I2
sS'attack'
p1792
I2
sS'Last-Minute'
p1793
I1
sS'declines'
p1794
I1
sS"Scotland's"
p1795
I1
sS'Stocks'
p1796
I2
sS'Vargas'
p1797
I1
sS'final'
p1798
I3
sS'2-2'
p1799
I1
sS'Lincoln'
p1800
I3
sS'Fox'
p1801
I1
sS'nobody'
p1802
I1
sS'Democratic'
p1803
I2
sS'Bolton'
p1804
I1
sS'Pound'
p1805
I1
sS'Siri'
p1806
I1
sS'compensation'
p1807
I1
sS'Diverse'
p1808
I1
sS'loves'
p1809
I1
sS'Psaki'
p1810
I1
sS"Facebook's"
p1811
I1
sS'Inquest'
p1812
I1
sS'recuse'
p1813
I1
sS'Richard'
p1814
I1
sS'have'
p1815
I3
sS'need'
p1816
I1
sS'border'
p1817
I1
sS'preps'
p1818
I1
sS'Spat'
p1819
I1
sS'Independent'
p1820
I1
sS"'Moonlight'"
p1821
I2
sS'Goldman'
p1822
I3
sS'After'
p1823
I5
sS'battles'
p1824
I1
sS'mix'
p1825
I1
sS'demolished'
p1826
I1
sS'so'
p1827
I1
sS'medals'
p1828
I1
sS'savages'
p1829
I1
sS'agenda'
p1830
I1
sS'who'
p1831
I1
sS'Titanic'
p1832
I1
sS'Without'
p1833
I2
sS'Games'
p1834
I1
sS'Mercedes'
p1835
I1
sS"'radical"
p1836
I1
sS'Lock'
p1837
I1
sS'Some'
p1838
I1
sS'face'
p1839
I2
sS'Donald'
p1840
I3
sS'Growth'
p1841
I1
sS'Earth'
p1842
I1
sS'USC'
p1843
I1
sS'Dem'
p1844
I1
sS'text'
p1845
I1
sS'bring'
p1846
I1
sS'Under'
p1847
I1
sS'rough'
p1848
I1
sS'feat'
p1849
I1
sS'debate'
p1850
I1
sS'decade'
p1851
I1
sS'staff'
p1852
I1
sS'Thrones'
p1853
I1
sS'sparks'
p1854
I1
sS'Khan'
p1855
I1
sS'winner'
p1856
I2
sS'should'
p1857
I3
sS'terminal'
p1858
I1
sS'Sons'
p1859
I1
sS'York'
p1860
I2
sS'thousands'
p1861
I2
sS'day-old'
p1862
I1
sS'Ngo'
p1863
I1
sS'19-9'
p1864
I1
sS"'giving"
p1865
I1
sS'joint'
p1866
I1
sS'burglary'
p1867
I1
sS'second-half'
p1868
I1
sS'Dial'
p1869
I1
sS'Because'
p1870
I1
sS"'don't"
p1871
I1
sS'calling'
p1872
I2
sS'Wall'
p1873
I1
sS"manager's"
p1874
I1
sS'she'
p1875
I1
sS'allegation'
p1876
I1
sS'Ps'
p1877
I1
sS'temporarily'
p1878
I1
sS"Oxford's"
p1879
I1
sS'frame'
p1880
I1
sS"'carjacking'"
p1881
I2
sS'officials'
p1882
I2
sS'signed'
p1883
I2
sS'closes'
p1884
I1
sS'Arrives'
p1885
I1
sS'Sinks'
p1886
I1
sS'Seconds'
p1887
I1
sS'nuclear'
p1888
I1
sS'Hike'
p1889
I3
sS'Lynch-Clinton'
p1890
I1
sS'PI'
p1891
I1
sS'email'
p1892
I3
sS'PM'
p1893
I1
sS"'soldiers"
p1894
I1
sS'job'
p1895
I2
sS'Himself'
p1896
I2
sS'EFL'
p1897
I2
sS'key'
p1898
I2
sS'hits'
p1899
I3
sS'admin'
p1900
I1
sS'Dreamed'
p1901
I1
sS'drug'
p1902
I1
sS'rams'
p1903
I1
sS'Indies'
p1904
I2
sS'volley'
p1905
I1
sS'Dynamics'
p1906
I1
sS'heart'
p1907
I1
sS'withdraws'
p1908
I3
sS'Her'
p1909
I1
sS'Haye'
p1910
I1
sS'Garry'
p1911
I1
sS'respect'
p1912
I1
sS"Women's"
p1913
I1
sS'Rewards'
p1914
I1
sS'trademark'
p1915
I1
sS'Immigration'
p1916
I1
sS'responds'
p1917
I1
sS'permanent'
p1918
I1
sS'Speak'
p1919
I1
sS'reshape'
p1920
I1
sS'Center'
p1921
I1
sS'Puzder'
p1922
I1
sS'overwhelmingly'
p1923
I1
sS'kickers'
p1924
I1
sS'Nations'
p1925
I7
sS"doesn't"
p1926
I1
sS'Credit'
p1927
I1
sS'kicks'
p1928
I1
sS'Jason'
p1929
I1
sS'an'
p1930
I2
sS'And'
p1931
I1
sS'smartphones'
p1932
I1
sS'Force'
p1933
I1
sS'Warns'
p1934
I3
sS'Hot'
p1935
I1
sS'General'
p1936
I2
sS'will'
p1937
I4
sS"America's"
p1938
I2
sS'Troops'
p1939
I1
sS'bicker'
p1940
I1
sS'almost'
p1941
I1
sS'Celtic'
p1942
I1
sS'rips'
p1943
I1
sS'Shackled'
p1944
I1
sS"Russia's"
p1945
I2
sS'You'
p1946
I4
sS'Singhal'
p1947
I1
sS'Briton'
p1948
I1
sS'Beat'
p1949
I1
sS'administration'
p1950
I2
sS'Insults'
p1951
I1
sS'free-kick'
p1952
I1
sS'Golf'
p1953
I1
sS'gets'
p1954
I1
sS'injured'
p1955
I2
sS'Entire'
p1956
I1
sS'1-0'
p1957
I4
sS'Coral'
p1958
I1
sS'1-2'
p1959
I2
sS'off'
p1960
I5
sS'Senate'
p1961
I1
sS'Aberdeen'
p1962
I1
sS'Muir'
p1963
I2
sS'thought'
p1964
I2
sS'patterns'
p1965
I1
sS'Have'
p1966
I2
sS'Need'
p1967
I1
sS'realised'
p1968
I1
sS'taller'
p1969
I1
sS'Million'
p1970
I3
sS'Entitlement'
p1971
I1
sS'less'
p1972
I1
sS'Liftoff'
p1973
I1
sS'Access'
p1974
I1
sS'Care'
p1975
I1
sS'Shale'
p1976
I1
sS'Flynn'
p1977
I1
sS'Gill'
p1978
I1
sS'Be'
p1979
I3
sS'field'
p1980
I1
sS'Kraft'
p1981
I1
sS'By'
p1982
I1
sS'tests'
p1983
I1
sS'Launch'
p1984
I1
sS'checking'
p1985
I1
sS'Dinner'
p1986
I1
sS'historic'
p1987
I1
sS'five'
p1988
I2
sS'know'
p1989
I2
sS'Salazar'
p1990
I1
sS'Release'
p1991
I1
sS'Fallen'
p1992
I1
sS'England'
p1993
I9
sS'helpful'
p1994
I1
sS'lost'
p1995
I1
sS'loses'
p1996
I1
sS'lose'
p1997
I1
sS'become'
p1998
I1
sS'Dustin'
p1999
I1
sS'refugees'
p2000
I1
sS'because'
p2001
I1
sS'footage'
p2002
I1
sS'Climate'
p2003
I1
sS"There's"
p2004
I1
sS'home'
p2005
I2
sS'Jonathan'
p2006
I1
sS'Claims'
p2007
I2
sS'Singapore'
p2008
I1
sS'Was'
p2009
I1
sS'does'
p2010
I1
sS'Bull'
p2011
I1
sS'Inside'
p2012
I1
sS'Official'
p2013
I1
sS'Up'
p2014
I2
sS'Us'
p2015
I3
sS'Pence'
p2016
I3
sS'Un'
p2017
I1
sS'Planned'
p2018
I1
sS'baffling'
p2019
I1
sS'stage'
p2020
I3
sS'about'
p2021
I5
sS'getting'
p2022
I1
sS'US'
p2023
I11
sS"Statham's"
p2024
I1
sS'UN'
p2025
I2
sS'on-stage'
p2026
I1
sS'urges'
p2027
I1
sS'fatally'
p2028
I1
sS'Really'
p2029
I1
sS'Passes'
p2030
I1
sS'Two'
p2031
I2
sS'included'
p2032
I1
sS'Labour'
p2033
I2
sS'female'
p2034
I1
sS'Insurers'
p2035
I1
sS'Awareness'
p2036
I1
sS'Bingham'
p2037
I1
sS"Foxes'"
p2038
I2
sS'Abdel-Rahman'
p2039
I1
sS'Assistant'
p2040
I1
sS'Spell'
p2041
I1
sS'Upon'
p2042
I1
sS'Child'
p2043
I1
sS'Rejection'
p2044
I1
sS'chatting'
p2045
I1
sS'Losses'
p2046
I1
sS'agrees'
p2047
I1
sS'but'
p2048
I1
sS'goals'
p2049
I2
sS"Flynn's"
p2050
I1
sS'highest'
p2051
I1
sS'Chelsea'
p2052
I1
sS'he'
p2053
I6
sS'made'
p2054
I1
sS'tactics'
p2055
I1
sS'calls'
p2056
I4
sS'Proposed'
p2057
I1
sS'whether'
p2058
I1
sS'Zlatan'
p2059
I1
sS'record'
p2060
I3
sS'Britain'
p2061
I1
sS'chairmanship'
p2062
I1
sS'limit'
p2063
I1
sS'Tes'
p2064
I1
sS'Insurance'
p2065
I1
sS'CIA'
p2066
I1
sS'Garth'
p2067
I1
sS'twist'
p2068
I1
sS'beats'
p2069
I3
sS'websites'
p2070
I1
sS'flight'
p2071
I1
sS'champion'
p2072
I1
sS'Fate'
p2073
I1
sS'Sessions'
p2074
I7
sS'86'
p2075
I1
sS'\xaa'
I1
sS'Dictators'
p2076
I1
sS'Delivery'
p2077
I1
sS'Islamic'
p2078
I1
sS'other'
p2079
I1
sS'Five'
p2080
I1
sS"'Terrorism"
p2081
I1
sS'Pietersen'
p2082
I1
sS'conclusion'
p2083
I1
sS'convicts'
p2084
I1
sS'Like'
p2085
I1
sS'stay'
p2086
I1
sS'April'
p2087
I1
sS'Future'
p2088
I1
sS'U'
I10
sS'Morgan'
p2089
I1
sS'Lose'
p2090
I1
sS'repeal'
p2091
I1
sS'friends'
p2092
I1
sS'South'
p2093
I1
sS'Private'
p2094
I1
sS'Ruck-gate'
p2095
I1
ssS'_mapping'
p2096
(dp2097
g18
I1600
sg19
I471
sg20
I1805
sg21
I115
sg22
I1177
sg23
I73
sg24
I44
sg25
I788
sg26
I319
sg27
I1015
sg28
I1354
sg29
I1401
sg30
I1235
sg31
I149
sg32
I714
sg33
I1328
sg34
I1203
sg35
I1913
sg36
I945
sg37
I1844
sg38
I759
sg39
I1591
sg40
I1869
sg41
I1779
sg42
I354
sg43
I362
sg44
I1915
sg45
I396
sg46
I1767
sg47
I1078
sg48
I1477
sg49
I1669
sg50
I198
sg51
I1073
sg52
I2091
sS'A'
I1508
sg53
I423
sg54
I1207
sg55
I1163
sg56
I1515
sg57
I1422
sg58
I1340
sg59
I1365
sg60
I344
sg61
I1211
sg62
I1440
sg63
I1092
sg64
I1527
sg65
I140
sg66
I1024
sg67
I2029
sg68
I326
sg69
I1996
sg70
I802
sg71
I518
sg72
I1947
sg73
I63
sg74
I891
sg75
I1811
sg76
I2062
sg77
I2031
sg78
I1332
sg79
I1325
sg80
I1086
sg81
I730
sg82
I952
sg83
I54
sg84
I143
sg85
I462
sg86
I180
sg87
I1725
sg88
I1187
sg89
I1415
sg90
I1885
sg91
I777
sg92
I850
sg93
I431
sg94
I1576
sg95
I699
sg96
I1762
sg97
I407
sg98
I1955
sg99
I134
sg100
I868
sg101
I170
sg102
I482
sg103
I1784
sg104
I280
sg105
I674
sg106
I951
sg107
I568
sg108
I251
sg109
I33
sg110
I626
sg111
I329
sg112
I833
sg113
I129
sg114
I1119
sg115
I1507
sg116
I1022
sg117
I586
sg118
I925
sg119
I2066
sg120
I2016
sg121
I1090
sg122
I1395
sg123
I466
sg124
I1305
sg125
I4
sg126
I1936
sg127
I1761
sg128
I1738
sg129
I803
sg130
I92
sg131
I1942
sg132
I716
sg133
I55
sg134
I1088
sg135
I1362
sg136
I93
sg137
I1052
sg138
I1952
sg139
I446
sg140
I1822
sg141
I1012
sg142
I203
sg143
I1198
sg144
I1013
sg145
I333
sg146
I1997
sg147
I988
sg148
I1488
sg149
I1992
sg150
I1209
sg151
I1572
sg152
I1240
sg153
I1606
sg154
I1984
sg155
I750
sg156
I640
sg157
I327
sg158
I1136
sg159
I1847
sg160
I192
sg161
I893
sg162
I1823
sg163
I1920
sg164
I121
sg165
I977
sg166
I1265
sg167
I808
sg168
I715
sg169
I1948
sg170
I69
sg171
I1042
sg172
I1025
sg173
I1351
sg174
I900
sg175
I132
sg176
I1257
sg177
I2080
sg178
I1605
sg179
I1912
sg180
I1278
sg181
I1807
sg182
I1525
sg183
I323
sg184
I315
sg185
I1796
sg186
I1799
sS'W'
I1504
sg187
I1425
sg188
I782
sg189
I1522
sg190
I1127
sg191
I137
sg192
I607
sg193
I1218
sg194
I1263
sg195
I837
sg196
I707
sg197
I573
sg198
I845
sg199
I1547
sg200
I542
sg201
I353
sg202
I2095
sg12
I0
sg203
I1481
sg204
I871
sg205
I1232
sg206
I2073
sg207
I533
sg208
I1775
sg209
I644
sg210
I89
sg211
I210
sg212
I1065
sg213
I1331
sg214
I1580
sg215
I843
sg216
I1270
sg217
I1904
sg218
I480
sg219
I1030
sg220
I416
sg221
I209
sg222
I155
sS'-'
I14
sg223
I1925
sg224
I983
sg225
I23
sg226
I789
sg227
I1050
sg228
I290
sg229
I1746
sg230
I1420
sg231
I656
sg232
I1518
sg233
I9
sg234
I1364
sg235
I389
sg236
I1882
sg237
I784
sg238
I916
sg239
I567
sg240
I1117
sg241
I1334
sg242
I529
sg243
I1756
sg244
I346
sg245
I430
sg246
I1384
sg247
I125
sg248
I1612
sg249
I1291
sg250
I1099
sg251
I1106
sg252
I465
sg253
I1244
sg254
I582
sg255
I1036
sg256
I527
sg257
I524
sg258
I112
sg259
I1893
sg260
I1892
sg261
I532
sg262
I1494
sg263
I1140
sg264
I1079
sg265
I1228
sg266
I29
sg267
I1020
sg268
I1169
sg269
I1158
sg270
I700
sS'X'
I505
sg271
I1343
sg272
I1532
sg273
I2087
sg274
I1857
sg275
I1256
sg276
I1306
sg277
I842
sg278
I2054
sg279
I85
sg280
I1655
sg281
I1190
sg282
I587
sg283
I1911
sg284
I420
sg285
I989
sg286
I195
sg287
I1975
sg288
I1129
sg289
I786
sg290
I398
sg291
I947
sg292
I1563
sg293
I912
sg294
I393
sg295
I278
sg296
I647
sg297
I1766
sg298
I1261
sg299
I739
sg300
I1282
sg301
I593
sg302
I394
sg303
I1259
sg304
I1645
sg305
I1557
sg306
I1797
sg307
I96
sg308
I448
sg309
I415
sg310
I1496
sg311
I1307
sg312
I1476
sg313
I1713
sg314
I1968
sg315
I691
sg316
I798
sg317
I141
sg318
I1818
sg319
I1656
sg320
I1098
sg321
I1374
sg322
I177
sg323
I216
sg324
I783
sg325
I222
sg326
I2093
sg327
I1005
sg328
I1758
sg329
I294
sg330
I1474
sg331
I974
sg332
I1587
sg333
I579
sg334
I345
sg335
I1588
sg336
I1327
sg337
I254
sg338
I2051
sg339
I1732
sg340
I522
sg341
I507
sg342
I992
sg343
I1923
sg344
I1963
sg345
I297
sg346
I366
sg347
I1622
sg348
I1486
sg349
I1346
sg350
I1128
sg351
I91
sg352
I387
sg353
I231
sg354
I1505
sg355
I1539
sg356
I46
sg357
I1849
sg358
I2081
sg359
I1006
sg360
I1945
sg361
I281
sg362
I1897
sg363
I1180
sg364
I1462
sg365
I685
sg366
I151
sg367
I2034
sg368
I1914
sg369
I1803
sg370
I876
sg371
I1714
sg372
I1978
sg373
I422
sg374
I1555
sg375
I460
sg376
I1747
sg377
I790
sg378
I1903
sg379
I904
sg380
I26
sg381
I383
sg382
I985
sg383
I200
sg384
I40
sg385
I2033
sg386
I1147
sg387
I43
sg388
I2074
sg389
I435
sg390
I645
sg391
I1308
sg392
I818
sg393
I1729
sg394
I1814
sg395
I450
sg396
I1966
sg397
I1556
sg398
I741
sg399
I1
sg400
I1468
sg401
I1970
sg402
I646
sg403
I829
sg404
I100
sg405
I105
sg406
I1018
sg407
I1312
sg408
I37
sg409
I729
sg410
I971
sg411
I1500
sg412
I1888
sg413
I1976
sg414
I212
sg415
I225
sg416
I1071
sg417
I1421
sg418
I909
sg419
I1155
sg420
I481
sg421
I560
sg422
I110
sg423
I1186
sg424
I299
sg425
I824
sg426
I2076
sg427
I879
sg428
I1642
sg429
I1064
sg430
I550
sg431
I939
sg432
I236
sg433
I57
sg434
I690
sg435
I1260
sg436
I577
sg437
I609
sg438
I1227
sg439
I1225
sg440
I437
sg441
I1411
sg442
I1906
sg443
I347
sg444
I1989
sg445
I1608
sg446
I1501
sg447
I390
sg448
I1250
sg449
I295
sg450
I757
sg451
I1329
sg452
I232
sg453
I1077
sg454
I273
sg455
I880
sg456
I1794
sg457
I957
sg458
I621
sg459
I627
sg460
I1055
sg461
I1288
sg462
I2098
sg463
I1192
sg464
I1837
sg465
I772
sg466
I1566
sg467
I1330
sg468
I322
sg469
I417
sg470
I1883
sg471
I1336
sg472
I1301
sg473
I681
sg474
I1204
sg475
I1969
sg476
I1108
sg477
I1982
sg478
I1629
sg479
I1458
sg480
I1633
sg481
I61
sg482
I79
sg483
I931
sg484
I734
sg485
I1534
sg486
I373
sg487
I1449
sg488
I1130
sg489
I1297
sg490
I335
sg491
I1895
sg492
I274
sg493
I456
sg494
I942
sg495
I1469
sg496
I1739
sg497
I754
sg498
I1243
sg499
I337
sg500
I1710
sg501
I1804
sg502
I1321
sg503
I117
sg504
I2010
sg505
I840
sg506
I692
sg507
I686
sg508
I291
sg509
I978
sg510
I648
sg511
I240
sg512
I1659
sg513
I1549
sg514
I1348
sg515
I234
sg516
I1935
sg517
I1826
sg518
I1247
sg519
I702
sg520
I1454
sg521
I665
sg522
I752
sg523
I138
sg524
I1668
sg525
I1720
sg526
I896
sg527
I289
sg528
I17
sg529
I1093
sg530
I1843
sg531
I1126
sg532
I193
sg533
I235
sg534
I1193
sg535
I765
sg536
I984
sg537
I1405
sg538
I793
sg539
I764
sg540
I300
sg541
I961
sg542
I673
sg543
I1370
sg544
I664
sg545
I1780
sg546
I583
sg547
I118
sg548
I1567
sg549
I675
sg550
I1101
sg551
I194
sg552
I260
sg553
I1262
sg554
I358
sg555
I996
sg556
I357
sg557
I421
sg558
I258
sg559
I253
sg560
I444
sg561
I1450
sg562
I1554
sg563
I122
sg564
I1487
sg565
I1137
sg566
I717
sg567
I1983
sg568
I1439
sg569
I1453
sg570
I1350
sg571
I2070
sg572
I1161
sg573
I712
sg574
I433
sg575
I1867
sg576
I1838
sg577
I495
sg578
I1391
sg579
I227
sg580
I693
sg581
I1641
sg582
I188
sg583
I1085
sg584
I104
sg585
I109
sg586
I902
sg587
I625
sg588
I313
sg589
I1383
sg590
I737
sg591
I1309
sg592
I1754
sg593
I66
sg594
I228
sg595
I514
sg596
I1122
sg597
I1698
sg598
I1051
sg599
I1856
sg600
I2084
sg601
I1866
sg602
I1578
sg603
I397
sg604
I2002
sg605
I519
sg606
I1075
sg607
I371
sg608
I1316
sg609
I453
sg610
I2040
sg611
I1908
sg612
I1926
sg613
I1413
sg614
I600
sg615
I910
sg616
I341
sg617
I1124
sg618
I870
sg619
I374
sg620
I1674
sg621
I1514
sg622
I1234
sg623
I1755
sg624
I1916
sg625
I724
sS'1'
I382
sg626
I363
sg627
I1879
sg628
I32
sg629
I267
sg630
I113
sg631
I1021
sg632
I1677
sg633
I168
sg634
I90
sg635
I401
sg636
I641
sg637
I1277
sg638
I1665
sg639
I1385
sg640
I787
sg641
I413
sg642
I1512
sg643
I1102
sg644
I1470
sg645
I687
sg646
I1816
sg647
I847
sg648
I2050
sg649
I883
sg650
I221
sg651
I1918
sg652
I993
sg653
I330
sg654
I1907
sg655
I1402
sg656
I1044
sg657
I1764
sg658
I1861
sg659
I1999
sg660
I1594
sg661
I1465
sg662
I962
sg663
I1735
sg664
I1841
sg665
I1625
sg666
I1375
sg667
I492
sg668
I1647
sg669
I1264
sg670
I30
sg671
I427
sg672
I1988
sg673
I710
sg674
I174
sg675
I1974
sg676
I1426
sg677
I1072
sg678
I1617
sg679
I131
sg680
I343
sg681
I1229
sg682
I857
sg683
I2094
sg684
I535
sg685
I1760
sg686
I1731
sg687
I558
sg688
I856
sg689
I349
sg690
I469
sg691
I1716
sg692
I146
sg693
I740
sg694
I442
sg695
I1001
sg696
I184
sg697
I1491
sg698
I898
sg699
I1995
sg700
I1115
sg701
I265
sg702
I1905
sg703
I1387
sg704
I1027
sg705
I554
sg706
I1356
sg707
I1114
sg708
I264
sg709
I1245
sg710
I102
sg711
I721
sg712
I905
sg713
I2055
sg714
I191
sg715
I489
sg716
I162
sg717
I608
sg718
I1957
sg719
I1874
sg720
I1546
sS'2'
I211
sg721
I119
sg722
I813
sg723
I537
sg724
I632
sg725
I1456
sg726
I1972
sg727
I351
sg728
I1181
sg729
I760
sg730
I654
sg731
I1210
sg732
I1840
sg733
I509
sg734
I994
sg735
I1951
sg736
I1159
sg737
I2065
sg738
I1111
sg739
I45
sg740
I367
sg741
I18
sg742
I1352
sg743
I946
sg744
I153
sg745
I1870
sg746
I2000
sg747
I128
sg748
I1990
sg749
I1536
sg750
I1511
sg751
I454
sg752
I1585
sg753
I321
sg754
I1846
sg755
I1595
sg756
I1833
sg757
I1174
sg758
I1484
sg759
I1358
sg760
I1489
sg761
I651
sg762
I1300
sg763
I1483
sg764
I1541
sg765
I589
sg766
I864
sg767
I50
sg768
I643
sg769
I1084
sg770
I776
sg771
I98
sg772
I887
sg773
I70
sg774
I1201
sg775
I108
sg776
I1008
sg777
I1517
sg778
I370
sg779
I797
sg780
I1750
sg781
I937
sg782
I622
sg783
I266
sg784
I725
sg785
I1701
sg786
I1592
sg787
I64
sg788
I1414
sg789
I1941
sg790
I1577
sg791
I1338
sg792
I1620
sg793
I755
sg794
I855
sg795
I987
sg796
I623
sg797
I1178
sg798
I316
sg799
I1339
sg800
I749
sg801
I585
sg802
I684
sg803
I68
sg804
I384
sg805
I452
sg806
I1850
sg807
I1152
sg808
I886
sg809
I1472
sS'3'
I348
sg810
I1574
sg811
I1380
sg812
I815
sg813
I1041
sg814
I163
sg815
I597
sg816
I1095
sg817
I745
sg818
I913
sg819
I1153
sg820
I1967
sg821
I949
sg822
I103
sg823
I1459
sg824
I2014
sg825
I1711
sg826
I995
sg827
I570
sg828
I1196
sS'S'
I249
sg829
I746
sS's'
I286
sg830
I897
sg831
I1061
sg832
I1637
sg833
I1817
sg834
I1156
sg835
I1293
sg836
I201
sg837
I414
sg838
I206
sg839
I1679
sg840
I1314
sg841
I1032
sg842
I936
sg843
I219
sg844
I979
sg845
I1452
sg846
I1790
sg847
I1103
sg848
I1437
sg849
I2088
sg850
I1971
sg851
I1435
sg852
I1852
sg853
I317
sg854
I769
sg855
I1962
sg856
I1611
sg857
I441
sg858
I506
sg859
I1812
sg860
I982
sg861
I306
sg862
I474
sg863
I1166
sg864
I1345
sg865
I1808
sg866
I1991
sg867
I324
sg868
I467
sg869
I1865
sg870
I530
sg871
I1943
sg872
I1219
sg873
I1253
sg874
I1292
sg875
I1040
sg876
I1651
sg877
I620
sg878
I10
sg879
I1266
sg880
I320
sg881
I2045
sg882
I1530
sg883
I1167
sg884
I1675
sg885
I496
sg886
I1194
sg887
I683
sS'I'
I139
sg888
I1386
sg889
I395
sg890
I304
sg891
I1134
sg892
I708
sg893
I1954
sg894
I2028
sg895
I668
sg896
I520
sg897
I1776
sg898
I534
sg899
I262
sg900
I252
sg901
I67
sg902
I1424
sg903
I1699
sg904
I1179
sg905
I325
sg906
I1053
sg907
I1601
sg908
I342
sg909
I819
sg910
I425
sg911
I48
sg912
I1059
sg913
I1226
sg914
I1131
sg915
I229
sg916
I943
sg917
I1540
sg918
I1066
sg919
I285
sg920
I1824
sg921
I719
sg922
I677
sg923
I744
sg924
I1825
sg925
I1581
sg926
I697
sg927
I1377
sg928
I624
sg929
I1360
sg930
I58
sg931
I186
sg932
I796
sg933
I1619
sg934
I2059
sg935
I972
sg936
I1751
sg937
I1783
sg938
I773
sg939
I1909
sS't'
I1026
sg940
I511
sg941
I536
sg942
I22
sg943
I284
sg944
I428
sg945
I780
sg946
I1987
sg947
I1927
sg948
I1096
sg949
I1684
sg950
I372
sg951
I1618
sg952
I439
sg953
I969
sg954
I861
sg955
I1664
sg956
I895
sg957
I1396
sg958
I1953
sg959
I275
sg960
I1197
sg961
I41
sg962
I76
sg963
I331
sg964
I400
sg965
I19
sg966
I2085
sg967
I208
sg968
I166
sg969
I1884
sg970
I1609
sg971
I1743
sg972
I2048
sg973
I147
sg974
I1080
sg975
I1872
sg976
I62
sg977
I336
sg978
I762
sg979
I1170
sg980
I243
sg981
I1898
sg982
I1749
sS'J'
I1559
sg983
I650
sg984
I1653
sg985
I1521
sg986
I49
sg987
I1233
sg988
I1326
sg989
I918
sg990
I1526
sg991
I688
sg992
I738
sg993
I1562
sg994
I1091
sg995
I1185
sg996
I834
sg997
I563
sg998
I1708
sg999
I698
sg1000
I1868
sg1001
I504
sg1002
I1593
sg1003
I2030
sg1004
I169
sg1005
I658
sg1006
I82
sg1007
I205
sg1008
I298
sg1009
I914
sg1010
I1886
sg1011
I1287
sg1012
I1368
sg1013
I2069
sg1014
I409
sg1015
I1958
sg1016
I303
sg1017
I1940
sg1018
I1082
sg1019
I629
sg1020
I1268
sS'5'
I287
sg1021
I318
sg1022
I1730
sg1023
I980
sg1024
I638
sg1025
I1004
sg1026
I1707
sg1027
I1407
sg1028
I1636
sg1029
I237
sg1030
I1230
sg1031
I670
sg1032
I2077
sg1033
I31
sg1034
I15
sg1035
I965
sg1036
I637
sg1037
I1337
sg1038
I763
sg1039
I1242
sg1040
I1523
sg1041
I779
sg1042
I1429
sg1043
I781
sg1044
I832
sg1045
I1569
sg1046
I1105
sg1047
I1875
sg1048
I761
sg1049
I1654
sg1050
I1889
sg1051
I812
sg1052
I1582
sg1053
I1014
sg1054
I272
sg1055
I1143
sg1056
I1829
sg1057
I997
sg1058
I2096
sg1059
I1533
sg1060
I2097
sg1061
I1681
sg1062
I35
sg1063
I1074
sg1064
I1643
sg1065
I282
sg1066
I801
sg1067
I12
sg1068
I1087
sg1069
I903
sg1070
I927
sg1071
I269
sg1072
I663
sg1073
I1146
sg1074
I2044
sg1075
I1455
sg1076
I1058
sg1077
I2099
sg1078
I499
sg1079
I2035
sg1080
I867
sg1081
I359
sg1082
I540
sg1083
I1310
sg1084
I1678
sg1085
I1359
sg1086
I1887
sg1087
I1039
sg1088
I1168
sg1089
I1145
sg1090
I564
sg1091
I1023
sg1092
I838
sg1093
I406
sg1094
I207
sg1095
I1798
sg1096
I1471
sg1097
I1932
sg1098
I491
sg1099
I1745
sg1100
I747
sg1101
I1706
sg1102
I1398
sg1103
I1862
sg1104
I1502
sg1105
I1271
sg1106
I1894
sg1107
I1382
sg1108
I1531
sg1109
I2011
sg1110
I1110
sg1111
I145
sg1112
I1628
sg1113
I350
sg1114
I1451
sg1115
I2012
sg1116
I161
sg1117
I1497
sg1118
I1579
sg1119
I1037
sg1120
I376
sg1121
I1205
sg1122
I51
sg1123
I487
sg1124
I1149
sg1125
I171
sg1126
I580
sg1127
I1623
sg1128
I711
sg1129
I1771
sg1130
I1392
sg1131
I932
sg1132
I1076
sg1133
I356
sg1134
I1035
sg1135
I2082
sS'v'
I339
sg1136
I340
sg1137
I501
sg1138
I1089
sg1139
I1560
sg1140
I1640
sg1141
I768
sg1142
I1726
sg1143
I1473
sg1144
I858
sg1145
I557
sg1146
I502
sg1147
I1896
sg1148
I176
sg1149
I1946
sg1150
I334
sg1151
I1981
sg1152
I672
sg1153
I2027
sg1154
I279
sg1155
I477
sg1156
I111
sg1157
I238
sS'a'
I83
sg1158
I1419
sg1159
I1276
sg1160
I488
sg1161
I1700
sg1162
I1120
sg1163
I1246
sg1164
I386
sg1165
I497
sg1166
I1213
sg1167
I885
sg1168
I215
sg1169
I1752
sg1170
I377
sg1171
I1551
sg1172
I1682
sg1173
I404
sg1174
I165
sg1175
I1922
sg1176
I1123
sg1177
I457
sg1178
I1801
sg1179
I1148
sg1180
I106
sg1181
I2090
sg1182
I1311
sg1183
I1397
sg1184
I223
sg1185
I107
sg1186
I628
sg1187
I549
sg1188
I182
sg1189
I486
sg1190
I1466
sg1191
I1361
sg1192
I1208
sg1193
I2043
sg1194
I78
sg1195
I1118
sg1196
I933
sg1197
I2079
sg1198
I1056
sg1199
I2015
sg1200
I185
sg1201
I1252
sg1202
I1770
sg1203
I1289
sg1204
I1400
sg1205
I865
sg1206
I1691
sg1207
I1965
sg1208
I1443
sg1209
I976
sg1210
I1831
sg1211
I1520
sg1212
I1393
sg1213
I1584
sg1214
I517
sg1215
I1723
sg1216
I1281
sg1217
I1635
sg1218
I706
sg1219
I1704
sg1220
I1490
sg1221
I181
sg1222
I2019
sg1223
I380
sg1224
I1680
sg1225
I355
sg1226
I605
sg1227
I1509
sg1228
I1150
sg1229
I2006
sg1230
I594
sg1231
I1658
sg1232
I352
sg1233
I575
sg1234
I566
sg1235
I1589
sg1236
I307
sg1237
I958
sg1238
I1891
sg1239
I1827
sg1240
I255
sg1241
I1631
sg1242
I1094
sg1243
I1182
sg1244
I1503
sg1245
I1273
sg1246
I911
sg1247
I1417
sg1248
I703
sg1249
I899
sg1250
I1878
sg1251
I1663
sg1252
I483
sg1253
I1011
sg1254
I1390
sg1255
I490
sg1256
I455
sg1257
I213
sg1258
I1410
sg1259
I1550
sg1260
I998
sg1261
I1718
sg1262
I1097
sg1263
I94
sg1264
I1467
sg1265
I1160
sg1266
I1791
sg1267
I2092
sg1268
I86
sg1269
I2060
sg1270
I1296
sg1271
I795
sg1272
I1859
sg1273
I935
sg1274
I652
sg1275
I1506
sg1276
I528
sg1277
I1696
sg1278
I1933
sg1279
I574
sg1280
I709
sg1281
I226
sg1282
I1447
sg1283
I602
sg1284
I736
sg1285
I1212
sg1286
I689
sg1287
I2041
sg1288
I1688
sg1289
I1694
sg1290
I2061
sg1291
I1038
sg1292
I1063
sg1293
I1960
sg1294
I1552
sg1295
I1649
sg1296
I1901
sg1297
I130
sg1298
I599
sg1299
I1993
sg1300
I1009
sg1301
I950
sg1302
I1949
sg1303
I854
sg1304
I1744
sg1305
I713
sg1306
I364
sg1307
I704
sg1308
I592
sg1309
I1499
sg1310
I160
sg1311
I1599
sg1312
I922
sg1313
I874
sg1314
I1881
sg1315
I680
sg1316
I2056
sg1317
I553
sg1318
I136
sS'8'
I87
sg1319
I1046
sg1320
I917
sg1321
I767
sg1322
I1819
sg1323
I1561
sg1324
I631
sg1325
I1378
sg1326
I915
sg1327
I1366
sg1328
I930
sg1329
I53
sg1330
I981
sg1331
I11
sg1332
I1388
sg1333
I662
sg1334
I581
sg1335
I1998
sg1336
I1692
sg1337
I148
sg1338
I123
sg1339
I1369
sg1340
I1399
sg1341
I601
sg1342
I167
sg1343
I1017
sg1344
I1404
sg1345
I183
sg1346
I276
sg1347
I547
sg1348
I800
sg1349
I2052
sg1350
I2024
sg1351
I256
sg1352
I239
sg1353
I827
sg1354
I1702
sg1355
I1139
sg1356
I418
sg1357
I1138
sg1358
I821
sg1359
I1516
sg1360
I199
sg1361
I1113
sg1362
I578
sg1363
I1835
sg1364
I379
sg1365
I1057
sg1366
I619
sg1367
I1568
sg1368
I1255
sg1369
I1939
sg1370
I595
sg1371
I878
sg1372
I1564
sg1373
I1860
sg1374
I1342
sg1375
I1267
sg1376
I1863
sg1377
I1772
sg1378
I1876
sg1379
I2086
sg1380
I588
sg1381
I88
sg1382
I1060
sg1383
I292
sg1384
I1538
sg1385
I1535
sg1386
I1616
sg1387
I1657
sg1388
I447
sg1389
I314
sg1390
I1457
sg1391
I525
sg1392
I42
sg1393
I679
sg1394
I1238
sg1395
I523
sg1396
I217
sg1397
I516
sg1398
I2018
sg1399
I920
sS'4'
I1524
sg1400
I1806
sg1401
I873
sg1402
I494
sg1403
I1231
sg1404
I1930
sg1405
I1787
sg1406
I1054
sg1407
I642
sg1408
I1249
sg1409
I2038
sg1410
I655
sg1411
I742
sg1412
I493
sg1413
I1759
sg1414
I823
sg1415
I1604
sg1416
I1045
sg1417
I807
sg1418
I872
sg1419
I412
sg1420
I956
sg1421
I1448
sg1422
I1736
sg1423
I478
sg1424
I1695
sg1425
I1479
sg1426
I459
sg1427
I1279
sg1428
I1049
sg1429
I1924
sg1430
I1029
sg1431
I1586
sg1432
I434
sg1433
I381
sg1434
I2020
sg1435
I157
sg1436
I1133
sg1437
I288
sg1438
I884
sg1439
I403
sg1440
I1603
sg1441
I1461
sg1442
I1548
sg1443
I1047
sg1444
I71
sg1445
I144
sg1446
I1938
sg1447
I732
sg1448
I753
sg1449
I1697
sg1450
I1423
sg1451
I940
sg1452
I101
sg1453
I2005
sg1454
I1648
sg1455
I576
sg1456
I7
sg1457
I95
sg1458
I852
sg1459
I1880
sg1460
I1768
sg1461
I152
sg1462
I919
sg1463
I1353
sg1464
I1607
sg1465
I1313
sg1466
I2003
sg1467
I172
sg1468
I948
sg1469
I1685
sg1470
I438
sg1471
I1335
sg1472
I503
sg1473
I2042
sg1474
I2023
sg1475
I2032
sg1476
I1683
sg1477
I1357
sg1478
I659
sg1479
I2013
sg1480
I36
sg1481
I1902
sg1482
I1686
sg1483
I1294
sg1484
I986
sg1485
I1285
sg1486
I150
sg1487
I1493
sg1488
I1431
sg1489
I1973
sg1490
I731
sg1491
I378
sg1492
I116
sg1493
I953
sg1494
I1890
sg1495
I1315
sg1496
I1215
sg1497
I426
sg1498
I1788
sg1499
I1858
sg1500
I476
sg1501
I1464
sg1502
I197
sg1503
I1662
sg1504
I1742
sg1505
I1151
sg1506
I1765
sg1507
I1418
sg1508
I59
sg1509
I1639
sg1510
I660
sg1511
I720
sg1512
I1239
sg1513
I142
sg1514
I1950
sg1515
I1815
sg1516
I2001
sg1517
I338
sg1518
I1687
sg1519
I1299
sg1520
I825
sg1521
I1602
sg1522
I1100
sg1523
I1937
sg1524
I1347
sg1525
I1371
sg1526
I1672
sg1527
I1408
sg1528
I667
sg1529
I1463
sg1530
I1571
sg1531
I1333
sg1532
I1199
sg1533
I811
sg1534
I1162
sg1535
I1412
sg1536
I1959
sg1537
I2047
sg1538
I1810
sg1539
I1542
sg1540
I410
sg1541
I1304
sg1542
I1802
sg1543
I1141
sg1544
I440
sg1545
I1154
sg1546
I565
sg1547
I1929
sg1548
I2075
sg1549
I475
sg1550
I34
sg1551
I1216
sg1552
I1871
sg1553
I860
sg1554
I39
sg1555
I955
sg1556
I47
sg1557
I1444
sg1558
I1741
sg1559
I822
sg1560
I77
sg1561
I296
sg1562
I365
sg1563
I1363
sg1564
I1107
sg1565
I259
sg1566
I809
sg1567
I27
sg1568
I189
sg1569
I178
sg1570
I1319
sg1571
I804
sg1572
I968
sg1573
I990
sg1574
I432
sg1575
I1964
sg1576
I2008
sg1577
I733
sg1578
I1323
sg1579
I1836
sg1580
I2039
sg1581
I1590
sg1582
I1703
sg1583
I1728
sg1584
I2067
sg1585
I1670
sg1586
I1427
sg1587
I2071
sg1588
I1121
sg1589
I1777
sg1590
I5
sg1591
I1132
sg1592
I1438
sg1593
I1195
sg1594
I1302
sg1595
I369
sg1596
I2083
sg1597
I21
sg1598
I695
sg1599
I2
sg1600
I541
sg1601
I2072
sg1602
I611
sg1603
I1931
sg1604
I888
sg1605
I1786
sS'P'
I1851
sg1606
I1644
sg1607
I1719
sg1608
I1379
sg1609
I25
sg1610
I1864
sg1611
I463
sg1612
I1910
sg1613
I375
sg1614
I1223
sg1615
I1254
sg1616
I970
sg1617
I1565
sg1618
I606
sg1619
I293
sg1620
I1224
sg1621
I1693
sg1622
I727
sg1623
I1652
sg1624
I368
sg1625
I301
sg1626
I2026
sg1627
I283
sg1628
I1251
sg1629
I1877
sg1630
I814
sg1631
I271
sg1632
I718
sg1633
I309
sg1634
I612
sg1635
I16
sg1636
I1019
sg1637
I963
sg1638
I835
sg1639
I1430
sg1640
I72
sg1641
I1303
sg1642
I1721
sg1643
I1781
sg1644
I1792
sg1645
I543
sg1646
I1171
sg1647
I1673
sg1648
I1442
sg1649
I1712
sg1650
I1717
sg1651
I901
sg1652
I723
sg1653
I311
sg1654
I305
sg1655
I445
sg1656
I2021
sg1657
I436
sg1658
I1785
sg1659
I484
sg1660
I964
sg1661
I826
sg1662
I1848
sg1663
I1630
sg1664
I247
sg1665
I615
sg1666
I926
sg1667
I6
sg1668
I312
sg1669
I882
sg1670
I1432
sg1671
I1774
sg1672
I1173
sg1673
I1189
sg1674
I2022
sg1675
I56
sg1676
I1782
sg1677
I13
sg1678
I392
sg1679
I28
sg1680
I1176
sg1681
I603
sg1682
I1322
sg1683
I538
sg1684
I846
sg1685
I1217
sg1686
I853
sg1687
I2053
sg1688
I461
sg1689
I1144
sg1690
I1482
sg1691
I701
sg1692
I849
sg1693
I451
sg1694
I97
sg1695
I1705
sg1696
I791
sg1697
I890
sg1698
I841
sg1699
I682
sg1700
I1634
sg1701
I1845
sg1702
I967
sg1703
I1994
sg1704
I1272
sg1705
I1175
sg1706
I1839
sg1707
I1543
sg1708
I1934
sg1709
I2049
sg1710
I1614
sg1711
I1409
sg1712
I1446
sg1713
I751
sg1714
I1821
sg1715
I245
sg1716
I1575
sg1717
I1434
sg1718
I1834
sg1719
I2046
sg1720
I1513
sg1721
I84
sg1722
I1275
sg1723
I1220
sg1724
I1583
sg1725
I468
sg1726
I124
sg1727
I1298
sg1728
I485
sg1729
I1000
sg1730
I268
sg1731
I1596
sg1732
I555
sg1733
I661
sg1734
I443
sg1735
I1070
sg1736
I2063
sg1737
I1172
sg1738
I277
sg1739
I1956
sg1740
I1125
sg1741
I722
sg1742
I1048
sg1743
I908
sg1744
I859
sg1745
I127
sg1746
I1800
sg1747
I2068
sS"'"
I158
sg1748
I1715
sg1749
I559
sg1750
I120
sg1751
I218
sg1752
I938
sg1753
I805
sg1754
I246
sg1755
I1142
sg1756
I771
sg1757
I1626
sg1758
I1813
sg1759
I831
sg1760
I1917
sg1761
I1734
sg1762
I1985
sg1763
I635
sg1764
I999
sg1765
I1558
sg1766
I500
sg1767
I202
sg1768
I1795
sg1769
I1724
sg1770
I1002
sg1771
I424
sg1772
I405
sg1773
I1460
sg1774
I591
sg1775
I545
sg1776
I1344
sg1777
I60
sg1778
I1900
sg1779
I1980
sg1780
I1062
sg1781
I241
sg1782
I1183
sg1783
I233
sg1784
I596
sg1785
I1944
sg1786
I539
sg1787
I604
sg1788
I1809
sg1789
I666
sg1790
I1433
sg1791
I1528
sg1792
I944
sg1793
I1241
sg1794
I848
sg1795
I774
sg1796
I1034
sg1797
I794
sg1798
I473
sg1799
I975
sg1800
I411
sg1801
I1598
sg1802
I1757
sg1803
I844
sg1804
I196
sg1805
I1248
sg1806
I1016
sg1807
I1324
sg1808
I830
sg1809
I361
sg1810
I851
sg1811
I820
sg1812
I1671
sg1813
I2009
sg1814
I270
sg1815
I308
sg1816
I1519
sg1817
I1615
sg1818
I154
sg1819
I1236
sg1820
I735
sg1821
I1280
sg1822
I1031
sg1823
I1436
sg1824
I1480
sg1825
I1286
sg1826
I966
sg1827
I1492
sg1828
I1537
sg1829
I618
sg1830
I1544
sg1831
I402
sg1832
I934
sg1833
I156
sg1834
I1793
sg1835
I1367
sg1836
I862
sg1837
I636
sg1838
I572
sg1839
I470
sg1840
I552
sg1841
I531
sg1842
I1445
sg1843
I2037
sg1844
I1495
sg1845
I464
sg1846
I114
sg1847
I1977
sg1848
I1545
sg1849
I1403
sg1850
I743
sg1851
I224
sg1852
I408
sg1853
I1341
sg1854
I187
sg1855
I756
sg1856
I458
sg1857
I3
sg1858
I748
sg1859
I551
sg1860
I429
sg1861
I399
sg1862
I385
sg1863
I1475
sg1864
I799
sg1865
I257
sg1866
I1498
sg1867
I1349
sg1868
I775
sg1869
I1441
sg1870
I1854
sg1871
I24
sg1872
I2007
sg1873
I1428
sg1874
I766
sg1875
I261
sg1876
I1627
sg1877
I960
sg1878
I1689
sg1879
I614
sg1880
I1372
sg1881
I630
sg1882
I52
sg1883
I1666
sg1884
I1919
sg1885
I561
sg1886
I1722
sg1887
I510
sg1888
I869
sg1889
I1222
sg1890
I2017
sg1891
I959
sg1892
I906
sg1893
I391
sg1894
I649
sg1895
I1081
sg1896
I1740
sg1897
I973
sg1898
I20
sg1899
I728
sg1900
I1613
sg1901
I1043
sg1902
I696
sg1903
I877
sg1904
I1529
sg1905
I613
sg1906
I1632
sg1907
I1820
sg1908
I81
sg1909
I590
sg1910
I1553
sg1911
I1376
sg1912
I419
sg1913
I164
sg1914
I1258
sg1915
I220
sg1916
I515
sg1917
I907
sg1918
I1373
sg1919
I2036
sg1920
I1763
sg1921
I332
sg1922
I80
sg1923
I175
sg1924
I785
sg1925
I770
sg1926
I2089
sg1927
I816
sg1928
I1206
sg1929
I2057
sg1930
I1660
sg1931
I1853
sg1932
I1112
sg1933
I1979
sg1934
I1033
sg1935
I1961
sg1936
I1928
sg1937
I250
sg1938
I817
sg1939
I584
sg1940
I1485
sg1941
I1104
sg1942
I479
sg1943
I214
sg1944
I562
sg1945
I2004
sg1946
I498
sg1947
I1621
sg1948
I634
sg1949
I806
sg1950
I190
sg1951
I657
sg1952
I616
sg1953
I556
sg1954
I671
sg1955
I633
sg1956
I1873
sg1957
I617
sg1958
I1202
sg1959
I1003
sg1960
I179
sg1961
I1727
sg1962
I1789
sg1963
I449
sg1964
I230
sg1965
I889
sg1966
I548
sg1967
I1068
sg1968
I1135
sg1969
I1109
sg1970
I1650
sg1971
I1028
sg1972
I1769
sg1973
I513
sg1974
I839
sg1975
I1570
sg1976
I1733
sg1977
I38
sg1978
I1200
sg1979
I836
sg1980
I388
sg1981
I521
sg1982
I653
sg1983
I1676
sg1984
I508
sg1985
I1667
sg1986
I828
sg1987
I1510
sg1988
I941
sg1989
I1214
sg1990
I694
sg1991
I1269
sg1992
I1295
sg1993
I954
sg1994
I866
sg1995
I1067
sg1996
I792
sg1997
I1690
sg1998
I924
sg1999
I1828
sg2000
I639
sg2001
I1624
sg2002
I1638
sg2003
I546
sg2004
I263
sg2005
I65
sg2006
I1830
sg2007
I569
sg2008
I1157
sg2009
I598
sg2010
I1778
sg2011
I991
sg2012
I135
sg2013
I544
sg2014
I526
sg2015
I571
sg2016
I244
sg2017
I1237
sg2018
I512
sg2019
I1283
sg2020
I676
sg2021
I133
sg2022
I1478
sg2023
I204
sg2024
I2058
sg2025
I8
sg2026
I1284
sg2027
I928
sg2028
I1083
sg2029
I1007
sg2030
I1921
sg2031
I1773
sg2032
I1832
sg2033
I929
sg2034
I726
sg2035
I1416
sg2036
I75
sg2037
I472
sg2038
I1355
sg2039
I328
sg2040
I1010
sg2041
I2078
sg2042
I1116
sg2043
I1165
sg2044
I1709
sg2045
I892
sg2046
I1855
sg2047
I1753
sg2048
I159
sg2049
I610
sg2050
I99
sg2051
I705
sg2052
I778
sg2053
I360
sg2054
I1661
sg2055
I1184
sg2056
I126
sg2057
I1221
sg2058
I1069
sg2059
I1317
sg2060
I242
sg2061
I923
sg2062
I881
sg2063
I1188
sg2064
I302
sg2065
I1320
sg2066
I1274
sg2067
I1191
sg2068
I1290
sg2069
I1394
sg2070
I1899
sg2071
I678
sg2072
I1389
sg2073
I2064
sg2074
I1737
sg2075
I1164
sS'\xaa'
I921
sg2076
I310
sg2077
I1842
sg2078
I863
sg2079
I894
sg2080
I1986
sg2081
I74
sg2082
I1406
sg2083
I1610
sg2084
I1573
sg2085
I1597
sg2086
I1318
sg2087
I758
sg2088
I1748
sS'U'
I248
sg2089
I1646
sg2090
I810
sg2091
I2025
sg2092
I875
sg2093
I173
sg2094
I669
sg2095
I1381
ssS'_reverse_mapping'
p2098
(lp2099
g12
ag399
ag1599
ag1857
ag125
ag1590
ag1667
ag1456
ag2025
ag233
ag878
ag1331
ag1067
ag1677
aS'-'
ag1034
ag1635
ag528
ag741
ag965
ag1898
ag1597
ag942
ag225
ag1871
ag1609
ag380
ag1567
ag1679
ag266
ag670
ag1033
ag628
ag109
ag1550
ag1062
ag1480
ag408
ag1977
ag1554
ag384
ag961
ag1392
ag387
ag24
ag739
ag356
ag1556
ag911
ag986
ag767
ag1122
ag1882
ag1329
ag83
ag133
ag1675
ag433
ag930
ag1508
ag1777
ag481
ag976
ag73
ag787
ag2005
ag593
ag901
ag803
ag170
ag773
ag1444
ag1640
ag23
ag2081
ag2036
ag962
ag1560
ag1194
ag482
ag1922
ag1908
ag1006
aS'a'
ag1721
ag279
ag1268
aS'8'
ag1381
ag210
ag634
ag351
ag130
ag136
ag1263
ag1457
ag307
ag1694
ag771
ag2050
ag404
ag1452
ag710
ag822
ag584
ag405
ag1180
ag1185
ag775
ag585
ag422
ag1156
ag258
ag630
ag1846
ag21
ag1492
ag503
ag547
ag721
ag1750
ag164
ag563
ag1338
ag1726
ag247
ag2056
ag1745
ag747
ag113
ag1297
ag679
ag175
ag2021
ag99
ag2012
ag1318
ag191
ag523
aS'I'
ag65
ag317
ag1513
ag84
ag1445
ag1111
ag692
ag973
ag1337
ag31
ag1486
ag366
ag1461
ag744
ag1818
ag222
ag1833
ag1435
aS"'"
ag2048
ag1310
ag1116
ag716
ag814
ag1913
ag1174
ag968
ag1342
ag633
ag1004
ag101
ag1125
ag1467
ag2093
ag674
ag1923
ag1148
ag322
ag1569
ag1960
ag86
ag1221
ag1188
ag1345
ag696
ag1200
ag931
ag1854
ag582
ag1568
ag1950
ag714
ag160
ag532
ag551
ag286
ag1804
ag1502
ag50
ag1360
ag383
ag836
ag1767
ag142
ag2023
ag1007
ag838
ag1094
ag967
ag221
ag211
aS'2'
ag414
ag1257
ag1943
ag1168
ag323
ag1396
ag1751
ag843
ag1915
ag650
ag325
ag1184
ag1851
ag415
ag1281
ag579
ag594
ag915
ag1964
ag353
ag452
ag1783
ag515
ag533
ag432
ag1029
ag1157
ag1352
ag511
ag1781
ag2060
ag980
ag2016
ag1715
ag1754
ag1664
aS'U'
aS'S'
ag1937
ag108
ag900
ag559
ag337
ag1240
ag1351
ag1865
ag558
ag1565
ag552
ag1875
ag899
ag2004
ag708
ag701
ag783
ag629
ag1730
ag1071
ag1814
ag1631
ag1054
ag454
ag492
ag959
ag1346
ag1738
ag295
ag1154
ag104
ag361
ag1065
ag1627
ag943
ag919
aS's'
aS'5'
ag1437
ag527
ag228
ag508
ag1383
ag1619
ag329
ag449
ag1561
ag345
ag1008
ag424
ag540
ag1625
ag2064
ag1016
ag890
ag1654
ag861
ag1236
ag1815
ag1633
ag2076
ag1653
ag1668
ag588
ag1389
ag184
ag798
ag853
ag1021
ag26
ag880
ag753
ag468
ag183
ag867
ag905
ag68
ag157
ag2039
ag111
ag653
ag963
ag1921
ag145
ag1150
ag490
ag977
ag499
ag1517
aS'v'
ag1136
ag616
ag908
ag680
ag60
ag334
ag244
ag443
aS'3'
ag689
ag1113
ag727
ag1232
ag201
ag42
ag1225
ag1133
ag556
ag554
ag1081
ag2053
ag1809
ag43
ag626
ag1306
ag1562
ag346
ag740
ag1624
ag1595
ag778
ag607
ag950
ag486
ag619
ag1613
ag1120
ag1170
ag1491
ag1364
ag1223
ag1433
aS'1'
ag381
ag804
ag1862
ag1164
ag352
ag1980
ag235
ag447
ag1893
ag1678
ag294
ag302
ag889
ag45
ag603
ag290
ag1861
ag964
ag635
ag1831
ag1439
ag1173
ag1772
ag1093
ag97
ag1852
ag1014
ag1540
ag1800
ag1419
ag641
ag837
ag309
ag220
ag469
ag1356
ag1912
ag284
ag557
ag373
ag53
ag1771
ag910
ag1497
ag671
ag944
ag1860
ag245
ag93
ag1574
ag574
ag1432
ag389
ag1657
ag440
ag1470
ag952
ag1544
ag857
ag694
ag1734
ag560
ag1655
ag139
ag1388
ag308
ag1963
ag395
ag1693
ag805
ag609
ag751
ag1256
ag493
ag1177
ag1856
ag1426
ag375
ag1688
ag85
ag1611
ag1845
ag252
ag123
ag868
ag1725
ag690
ag1839
ag19
ag2037
ag1798
ag862
ag1549
ag1500
ag1155
ag1423
ag1942
ag218
ag420
ag102
ag1252
ag1659
ag1728
ag1189
ag1123
ag1160
ag715
ag1255
ag1098
ag667
ag1412
ag1402
ag577
ag885
ag1165
ag1946
ag1078
ag1766
ag1137
ag1146
ag1472
ag1001
aS'X'
ag858
ag341
ag1984
ag733
ag1887
ag940
ag2018
ag1973
ag595
ag1916
ag1397
ag1214
ag71
ag605
ag896
ag1981
ag340
ag1395
ag257
ag1391
ag2014
ag256
ag1276
ag242
ag870
ag1841
ag261
ag207
ag898
ag684
ag941
ag723
ag1683
ag1786
ag1082
ag1600
ag200
ag1645
ag2013
ag1775
ag2003
ag1347
ag1966
ag1187
ag430
ag1859
ag1840
ag1317
ag705
ag1732
ag1953
ag1145
ag687
ag1749
ag421
ag1885
ag1944
ag997
ag1090
ag1546
ag1234
ag239
ag107
ag2007
ag827
ag2015
ag1838
ag197
ag1279
ag1233
ag1455
ag436
ag1362
ag333
ag1126
ag1334
ag254
ag546
ag1939
ag801
ag117
ag282
ag1380
ag765
ag1909
ag1774
ag1308
ag301
ag1230
ag1370
ag1784
ag815
ag2009
ag1298
ag614
ag1341
ag1283
ag1681
ag1787
ag1226
ag1618
ag192
ag717
ag437
ag2049
ag1602
ag1634
ag1905
ag1879
ag1665
ag1952
ag1957
ag1829
ag1366
ag877
ag458
ag782
ag796
ag928
ag587
ag110
ag459
ag1186
ag1019
ag1881
ag1324
ag724
ag1955
ag1948
ag1763
ag1837
ag1036
ag1024
ag2000
ag156
ag636
ag1407
ag768
ag209
ag390
ag402
ag296
ag510
ag1894
ag983
ag761
ag1274
ag1982
ag730
ag1410
ag231
ag1951
ag1005
ag1478
ag1510
ag1733
ag1333
ag1072
ag544
ag521
ag1789
ag1528
ag895
ag2094
ag1031
ag1954
ag1152
ag542
ag105
ag549
ag2020
ag922
ag2071
ag1393
ag1315
ag473
ag1699
ag887
ag802
ag365
ag507
ag645
ag991
ag1286
ag434
ag315
ag506
ag580
ag1990
ag1598
ag1902
ag926
ag999
ag95
ag270
ag1691
ag519
ag1248
ag1307
ag2051
ag1218
ag196
ag892
ag1280
ag673
ag1128
ag573
ag1305
ag32
ag168
ag132
ag566
ag1632
ag921
ag1511
ag711
ag1741
ag1652
ag625
ag784
ag2034
ag1622
ag1899
ag409
ag81
ag1490
ag1447
ag1577
ag484
ag1820
ag1284
ag590
ag992
ag299
ag693
ag398
ag1411
ag1850
ag923
ag817
ag829
ag1100
ag1858
ag800
ag155
ag1713
ag522
ag1448
ag497
ag793
ag1855
ag450
ag2087
ag38
ag729
ag1048
ag978
ag1038
ag539
ag535
ag1874
ag1321
ag1141
ag854
ag1925
ag1756
ag465
ag938
ag1795
ag1868
ag770
ag91
ag2052
ag1041
ag945
ag1043
ag188
ag324
ag237
ag1924
ag289
ag640
ag25
ag226
ag377
ag1696
ag1996
ag538
ag1797
ag1271
ag932
ag779
ag316
ag1864
ag1348
ag1066
ag70
ag129
ag1571
ag1753
ag1949
ag1417
ag167
ag1566
ag2090
ag1533
ag1051
ag722
ag1630
ag812
ag1927
ag1938
ag392
ag909
ag1811
ag1358
ag1559
ag1414
ag425
ag1520
ag1661
ag1353
ag1986
ag403
ag1808
ag1759
ag1044
ag112
ag996
ag1638
ag1979
ag195
ag1092
ag1974
ag505
ag1698
ag277
ag215
ag1803
ag198
ag1684
ag647
ag1794
ag1692
ag92
ag1810
ag1458
ag1686
ag1303
ag794
ag688
ag682
ag1144
ag1744
ag1553
ag954
ag1836
ag2078
ag766
ag1205
ag1994
ag1080
ag100
ag1888
ag618
ag204
ag1418
ag1401
ag1313
ag2092
ag370
ag1903
ag1371
ag427
ag455
ag2062
ag1669
ag649
ag1438
ag1167
ag808
ag772
ag1604
ag1965
ag1697
ag74
ag2045
ag161
ag2079
ag956
ag526
ag830
ag698
ag1249
ag174
ag1651
ag586
ag1069
ag379
ag712
ag1892
ag1917
ag1743
ag418
ag615
ag1246
ag293
ag818
ag1009
ag1326
ag238
ag1320
ag989
ag1462
ag1399
aS'\xaa'
ag1312
ag2061
ag1998
ag118
ag1666
ag1070
ag2027
ag2033
ag1328
ag483
ag1131
ag1196
ag1832
ag1273
ag842
ag781
ag1752
ag431
ag1451
ag1988
ag494
ag916
ag1792
ag36
ag743
ag291
ag1468
ag821
ag1301
ag106
ag82
ag1493
ag1993
ag1555
ag1420
ag457
ag1237
ag1891
ag1877
ag541
ag662
ag1637
ag1660
ag1035
ag1826
ag1702
ag1572
ag953
ag1616
ag410
ag935
ag1897
ag331
ag1799
ag1209
ag165
ag509
ag844
ag1023
ag1330
ag860
ag224
ag536
ag382
ag1484
ag795
ag147
ag285
ag1573
ag2011
ag342
ag652
ag734
ag826
ag555
ag1057
ag1260
ag1764
ag1729
ag695
ag1770
ag1959
ag1025
ag327
ag359
ag2029
ag776
ag1300
ag2040
ag1253
ag141
ag144
ag1053
ag27
ag1806
ag1343
ag406
ag1636
ag267
ag631
ag116
ag1091
ag66
ag172
aS't'
ag704
ag1971
ag1430
ag219
ag1822
ag841
ag1934
ag1796
ag1134
ag255
ag1119
ag1291
ag1087
ag875
ag813
ag171
ag1901
ag656
ag1416
ag1319
ag1443
ag1742
ag1428
ag227
ag598
ag137
ag906
ag1406
ag460
ag1198
ag1365
ag1076
ag912
ag1382
ag831
ag1780
ag1292
ag429
ag212
ag918
ag1995
ag1967
ag2058
ag1735
ag416
ag677
ag51
ag1063
ag606
ag1132
ag453
ag47
ag264
ag974
ag1895
ag1018
ag2028
ag769
ag583
ag80
ag1068
ag134
ag1138
ag121
ag994
ag63
ag529
ag1242
ag816
ag948
ag1262
ag320
ag250
ag1522
ag550
ag643
ag847
ag1941
ag1046
ag251
ag1564
ag476
ag1969
ag1110
ag738
ag1932
ag1361
ag707
ag700
ag2042
ag240
ag1195
ag114
ag1162
ag1588
ag596
ag1176
ag617
ag1740
ag531
ag190
ag350
ag288
ag488
ag914
ag1591
ag1436
ag891
ag1968
ag158
ag565
ag1357
ag1355
ag263
ag1543
ag1755
ag1055
ag1689
ag1089
ag1073
ag386
ag1179
ag1124
ag1228
ag1505
ag807
ag819
ag1545
ag419
ag834
ag2008
ag269
ag736
ag1265
ag572
ag1534
ag55
ag2075
ag2043
ag863
ag883
ag1088
ag268
ag979
ag1646
ag1737
ag1672
ag757
ag1705
ag1680
ag22
ag797
ag904
ag363
ag728
ag1243
ag1782
ag2055
ag995
ag423
ag88
ag2063
ag1673
ag281
ag2067
ag463
ag534
ag886
ag1593
ag828
ag960
ag143
ag1532
ag1978
ag774
ag1958
ag34
ag474
ag1121
ag1928
ag54
ag1192
ag150
ag731
ag61
ag1285
ag1166
ag1989
ag1496
ag1551
ag1685
ag193
ag872
ag1723
ag2057
ag1889
ag1614
ag1620
ag439
ag913
ag438
ag265
ag681
ag1030
ag1403
ag205
ag987
ag622
ag30
ag1819
ag2017
ag1394
ag1512
ag152
ag1793
ag1039
ag498
ag253
ag709
ag1163
ag518
ag1805
ag1408
ag448
ag1628
ag1201
ag873
ag1615
ag1368
ag275
ag176
ag1914
ag303
ag435
ag298
ag553
ag194
ag669
ag166
ag879
ag1375
ag1020
ag1991
ag216
ag1105
ag1704
ag1245
ag2066
ag1722
ag1159
ag637
ag180
ag1427
ag1821
ag1216
ag300
ag2019
ag2026
ag1485
ag1825
ag1011
ag461
ag1203
ag2068
ag249
ag874
ag835
ag1483
ag1992
ag1270
ag489
ag1727
ag1519
ag762
ag472
ag1594
ag1641
ag1541
ag124
ag276
ag311
ag391
ag591
ag1083
ag1182
ag407
ag1465
ag840
ag1495
ag608
ag2059
ag2086
ag1570
ag2065
ag502
ag1682
ag1578
ag1807
ag79
ag988
ag336
ag33
ag451
ag467
ag213
ag78
ag1531
ag241
ag1471
ag471
ag1037
ag791
ag799
ag58
ag1853
ag1374
ag271
ag1776
ag864
ag349
ag1524
ag514
ag1867
ag570
ag173
ag742
ag1463
ag28
ag2038
ag706
ag1477
ag759
ag1085
ag929
ag1191
ag135
ag1563
ag234
ag59
ag1327
ag1835
ag1012
ag1339
ag543
ag1525
ag1880
ag1918
ag321
ag666
ag1911
ag927
ag1325
ag1608
ag811
ag2095
ag1107
ag589
ag246
ag639
ag888
ag703
ag1332
ag2072
ag1254
ag578
ag1130
ag1212
ag2069
ag122
ag957
ag1183
ag1102
ag1340
ag1204
ag29
ag655
ag1849
ag1344
ag537
ag2082
ag1027
ag1527
ag1711
ag1258
ag441
ag1535
ag613
ag788
ag89
ag2035
ag1247
ag1507
ag1158
ag230
ag417
ag57
ag1450
ag902
ag187
ag676
ag1586
ag1873
ag1042
ag1639
ag1488
ag1670
ag1790
ag1717
ag851
ag1823
ag848
ag1592
ag568
ag62
ag1869
ag1648
ag1208
ag1557
ag1842
ag1712
ag1282
ag1421
ag487
ag561
ag1114
ag845
ag569
ag520
ag1075
ag725
ag1390
ag479
ag823
ag1773
ag1441
ag364
ag1529
ag1501
ag661
ag1190
ag1264
ag400
ag495
ag644
ag1096
ag809
ag1143
ag330
ag1863
ag312
ag48
ag2022
ag1425
ag1824
ag203
ag1690
ag763
ag758
ag1940
ag348
ag564
ag148
ag760
ag1220
ag697
ag1827
ag1487
ag262
ag1844
ag310
ag1117
ag1866
ag1309
ag411
ag446
ag1104
ag1244
aS'W'
ag354
ag1275
ag115
aS'A'
ag1227
ag1987
ag750
ag642
ag1720
ag621
ag56
ag1359
ag777
ag232
ag1816
ag1211
ag985
ag189
ag1040
aS'4'
ag182
ag990
ag64
ag1791
ag1904
ag882
ag1108
ag272
ag1059
ag485
ag1385
ag749
ag1828
ag1384
ag355
ag917
ag764
ag1539
ag1707
ag1830
ag1848
ag720
ag199
ag1442
ag513
ag1259
ag1171
ag1294
ag1910
ag562
ag374
ag397
ag305
ag1765
aS'J'
ag1139
ag1323
ag993
ag292
ag1372
ag1617
ag466
ag548
ag1367
ag1045
ag1975
ag1530
ag151
ag2084
ag810
ag1716
ag94
ag790
ag602
ag1118
ag214
ag925
ag1052
ag1724
ag1213
ag752
ag1431
ag332
ag335
ag1235
ag1581
ag39
ag786
ag1002
ag660
ag755
ag1731
ag2085
ag1801
ag1311
ag18
ag907
ag1521
ag1440
ag1415
ag178
ag153
ag1464
ag445
ag970
ag2083
ag856
ag248
ag1900
ag1710
ag1817
ag1386
ag678
ag951
ag933
ag792
ag1947
ag347
ag1127
ag2001
ag665
ag1757
ag1876
ag1112
ag478
ag1663
ag1241
ag1906
ag480
ag1700
ag1217
ag1028
ag832
ag2002
ag1509
ag1140
ag581
ag428
ag1064
ag1606
ag304
ag2089
ag668
ag1454
ag1295
ag1970
ag876
ag1623
ag984
ag1049
ag280
ag319
ag1387
ag1231
ag512
ag1930
ag2054
ag1503
ag1251
ag955
ag638
ag1883
ag1985
ag524
ag49
ag1585
ag1812
ag1526
ag1647
ag620
ag884
ag1983
ag632
ag1084
ag839
ag1224
ag1061
ag1172
ag1476
ag949
ag1469
ag1482
ag1518
ag1288
ag1878
ag1997
ag1206
ag1336
ag1621
ag1289
ag1424
ag1277
ag1449
ag597
ag903
ag1161
ag785
ag1354
ag1582
ag1219
ag1695
ag1101
ag1026
ag998
ag2044
ag500
ag825
ag1649
ag313
ag371
ag1748
ag691
ag1650
ag1261
ag1607
ag525
ag1642
ag1886
ag1215
ag1769
ag87
ag1142
ag1961
ag1583
ag393
ag1022
ag686
ag339
ag1976
ag1761
ag663
ag1422
ag2074
ag128
ag496
ag1896
ag1558
ag1504
ag971
ag1304
ag1099
ag229
ag376
ag2088
ag982
ag780
ag936
ag1169
ag2047
ag592
ag623
ag243
ag1802
ag328
ag1413
ag685
ag127
ag96
ag1920
ag657
ag1506
ag297
ag46
ag1460
ag1972
ag1202
ag1129
ag1377
ag2031
ag1671
ag208
ag897
ag1589
ag2010
ag41
ag545
ag1643
ag1676
ag937
ag103
ag1658
ag1605
ag1405
ag1498
ag1962
ag846
ag1266
ag1644
ag1834
ag456
ag1768
ag185
ag306
ag1095
ag186
ag1746
ag1178
ag1542
ag369
ag501
ag20
ag1400
ag181
ag865
ag1788
ag1538
ag75
ag859
ag1758
ag394
ag1515
ag646
ag833
ag318
ag1322
ag1907
ag1714
ag140
ag162
ag920
ag924
ag517
ag1239
ag1999
ag1056
ag2006
ag1210
ag2032
ag756
ag1718
ag1363
ag1579
ag464
ag576
ag1706
ag732
ag664
ag2077
ag530
ag37
ag1701
ag754
ag159
ag1662
ag357
ag806
aS'P'
ag852
ag1931
ag1870
ag2046
ag599
ag274
ag1499
ag1272
ag1373
ag658
ag1103
ag1376
ag1610
ag869
ag601
ag575
ag1000
ag40
ag745
ag1552
ag975
ag1956
ag719
ag1047
ag1378
ag1629
ag1250
ag627
ag1459
ag1314
ag236
ag470
ag969
ag90
ag1010
ag1086
ag412
ag1050
ag1494
ag1238
ag260
ag259
ag1106
ag491
ag1147
ag362
ag981
ag2070
ag1778
ag1296
ag1481
ag378
ag217
ag702
ag442
ag654
ag611
ag939
ag1612
ag283
ag179
ag35
ag368
ag44
ag624
ag1760
ag651
ag1884
ag163
ag2030
ag1175
ag343
ag1429
ag223
ag612
ag947
ag1936
ag1547
ag1404
ag1603
ag1097
ag1278
ag1708
ag516
ag126
ag1523
ag1446
ag1369
ag1017
ag789
ag131
ag871
ag1785
ag360
ag1149
ag72
ag169
ag1302
ag1514
ag735
ag138
ag958
ag893
ag98
ag1739
ag718
ag1015
ag1536
ag1293
ag1935
ag855
ag344
ag1575
ag1207
ag396
ag820
ag314
ag475
ag401
ag850
ag726
ag1489
ag675
ag287
ag413
ag1847
ag372
ag1933
ag1779
ag1151
ag477
ag567
ag154
ag1762
ag2080
ag946
ag672
ag444
ag748
ag866
ag149
ag1299
ag1703
ag699
ag69
ag146
ag1335
ag659
ag746
ag1516
ag604
ag1466
ag1945
ag1453
ag1229
ag1872
ag1576
ag1813
ag504
ag1109
ag1115
ag1479
ag824
ag1199
ag120
ag1890
ag1398
ag1222
ag1434
ag1656
ag1674
ag1474
ag1350
ag2091
ag1626
ag1153
ag894
ag67
ag1003
ag77
ag1475
ag385
ag367
ag1079
ag1919
ag1843
ag1409
ag1580
ag610
ag1287
ag1473
ag1193
ag1074
ag881
ag1719
ag1537
ag972
ag1709
ag648
ag338
ag1349
ag1687
ag278
ag713
ag1316
ag1929
ag2024
ag934
ag1269
ag1290
ag76
ag1736
ag2073
ag737
ag119
ag1584
ag1747
ag1013
ag571
ag1587
ag1601
ag206
ag388
ag1548
ag426
ag1032
ag2041
ag1197
ag177
ag358
ag1135
ag1596
ag600
ag966
ag1379
ag273
ag849
ag1926
ag1181
ag52
ag1267
ag326
ag683
ag202
ag1058
ag1060
ag462
ag1077
asbsS'max_document_length'
p2100
I100
sS'_tokenizer'
p2101
ctensorflow.contrib.learn.python.learn.preprocessing.text
tokenizer
p2102
sS'min_frequency'
p2103
I0
sb.